
bomb:     file format elf32-i386


Disassembly of section .init:

08048700 <_init>:
 8048700:	53                   	push   %ebx
 8048701:	83 ec 08             	sub    $0x8,%esp
 8048704:	e8 47 02 00 00       	call   8048950 <__x86.get_pc_thunk.bx>
 8048709:	81 c3 f7 48 00 00    	add    $0x48f7,%ebx
 804870f:	8b 83 fc ff ff ff    	mov    -0x4(%ebx),%eax
 8048715:	85 c0                	test   %eax,%eax
 8048717:	74 05                	je     804871e <_init+0x1e>
 8048719:	e8 f2 01 00 00       	call   8048910 <.plt.got>
 804871e:	83 c4 08             	add    $0x8,%esp
 8048721:	5b                   	pop    %ebx
 8048722:	c3                   	ret    

Disassembly of section .plt:

08048730 <.plt>:
 8048730:	ff 35 04 d0 04 08    	pushl  0x804d004
 8048736:	ff 25 08 d0 04 08    	jmp    *0x804d008
 804873c:	00 00                	add    %al,(%eax)
	...

08048740 <read@plt>:
 8048740:	ff 25 0c d0 04 08    	jmp    *0x804d00c
 8048746:	68 00 00 00 00       	push   $0x0
 804874b:	e9 e0 ff ff ff       	jmp    8048730 <.plt>

08048750 <printf@plt>:
 8048750:	ff 25 10 d0 04 08    	jmp    *0x804d010
 8048756:	68 08 00 00 00       	push   $0x8
 804875b:	e9 d0 ff ff ff       	jmp    8048730 <.plt>

08048760 <fflush@plt>:
 8048760:	ff 25 14 d0 04 08    	jmp    *0x804d014
 8048766:	68 10 00 00 00       	push   $0x10
 804876b:	e9 c0 ff ff ff       	jmp    8048730 <.plt>

08048770 <memcpy@plt>:
 8048770:	ff 25 18 d0 04 08    	jmp    *0x804d018
 8048776:	68 18 00 00 00       	push   $0x18
 804877b:	e9 b0 ff ff ff       	jmp    8048730 <.plt>

08048780 <fgets@plt>:
 8048780:	ff 25 1c d0 04 08    	jmp    *0x804d01c
 8048786:	68 20 00 00 00       	push   $0x20
 804878b:	e9 a0 ff ff ff       	jmp    8048730 <.plt>

08048790 <signal@plt>:
 8048790:	ff 25 20 d0 04 08    	jmp    *0x804d020
 8048796:	68 28 00 00 00       	push   $0x28
 804879b:	e9 90 ff ff ff       	jmp    8048730 <.plt>

080487a0 <sleep@plt>:
 80487a0:	ff 25 24 d0 04 08    	jmp    *0x804d024
 80487a6:	68 30 00 00 00       	push   $0x30
 80487ab:	e9 80 ff ff ff       	jmp    8048730 <.plt>

080487b0 <alarm@plt>:
 80487b0:	ff 25 28 d0 04 08    	jmp    *0x804d028
 80487b6:	68 38 00 00 00       	push   $0x38
 80487bb:	e9 70 ff ff ff       	jmp    8048730 <.plt>

080487c0 <bcopy@plt>:
 80487c0:	ff 25 2c d0 04 08    	jmp    *0x804d02c
 80487c6:	68 40 00 00 00       	push   $0x40
 80487cb:	e9 60 ff ff ff       	jmp    8048730 <.plt>

080487d0 <strcpy@plt>:
 80487d0:	ff 25 30 d0 04 08    	jmp    *0x804d030
 80487d6:	68 48 00 00 00       	push   $0x48
 80487db:	e9 50 ff ff ff       	jmp    8048730 <.plt>

080487e0 <gethostname@plt>:
 80487e0:	ff 25 34 d0 04 08    	jmp    *0x804d034
 80487e6:	68 50 00 00 00       	push   $0x50
 80487eb:	e9 40 ff ff ff       	jmp    8048730 <.plt>

080487f0 <getenv@plt>:
 80487f0:	ff 25 38 d0 04 08    	jmp    *0x804d038
 80487f6:	68 58 00 00 00       	push   $0x58
 80487fb:	e9 30 ff ff ff       	jmp    8048730 <.plt>

08048800 <malloc@plt>:
 8048800:	ff 25 3c d0 04 08    	jmp    *0x804d03c
 8048806:	68 60 00 00 00       	push   $0x60
 804880b:	e9 20 ff ff ff       	jmp    8048730 <.plt>

08048810 <puts@plt>:
 8048810:	ff 25 40 d0 04 08    	jmp    *0x804d040
 8048816:	68 68 00 00 00       	push   $0x68
 804881b:	e9 10 ff ff ff       	jmp    8048730 <.plt>

08048820 <exit@plt>:
 8048820:	ff 25 44 d0 04 08    	jmp    *0x804d044
 8048826:	68 70 00 00 00       	push   $0x70
 804882b:	e9 00 ff ff ff       	jmp    8048730 <.plt>

08048830 <__libc_start_main@plt>:
 8048830:	ff 25 48 d0 04 08    	jmp    *0x804d048
 8048836:	68 78 00 00 00       	push   $0x78
 804883b:	e9 f0 fe ff ff       	jmp    8048730 <.plt>

08048840 <fprintf@plt>:
 8048840:	ff 25 4c d0 04 08    	jmp    *0x804d04c
 8048846:	68 80 00 00 00       	push   $0x80
 804884b:	e9 e0 fe ff ff       	jmp    8048730 <.plt>

08048850 <write@plt>:
 8048850:	ff 25 50 d0 04 08    	jmp    *0x804d050
 8048856:	68 88 00 00 00       	push   $0x88
 804885b:	e9 d0 fe ff ff       	jmp    8048730 <.plt>

08048860 <strcasecmp@plt>:
 8048860:	ff 25 54 d0 04 08    	jmp    *0x804d054
 8048866:	68 90 00 00 00       	push   $0x90
 804886b:	e9 c0 fe ff ff       	jmp    8048730 <.plt>

08048870 <__isoc99_sscanf@plt>:
 8048870:	ff 25 58 d0 04 08    	jmp    *0x804d058
 8048876:	68 98 00 00 00       	push   $0x98
 804887b:	e9 b0 fe ff ff       	jmp    8048730 <.plt>

08048880 <fopen@plt>:
 8048880:	ff 25 5c d0 04 08    	jmp    *0x804d05c
 8048886:	68 a0 00 00 00       	push   $0xa0
 804888b:	e9 a0 fe ff ff       	jmp    8048730 <.plt>

08048890 <__errno_location@plt>:
 8048890:	ff 25 60 d0 04 08    	jmp    *0x804d060
 8048896:	68 a8 00 00 00       	push   $0xa8
 804889b:	e9 90 fe ff ff       	jmp    8048730 <.plt>

080488a0 <sprintf@plt>:
 80488a0:	ff 25 64 d0 04 08    	jmp    *0x804d064
 80488a6:	68 b0 00 00 00       	push   $0xb0
 80488ab:	e9 80 fe ff ff       	jmp    8048730 <.plt>

080488b0 <socket@plt>:
 80488b0:	ff 25 68 d0 04 08    	jmp    *0x804d068
 80488b6:	68 b8 00 00 00       	push   $0xb8
 80488bb:	e9 70 fe ff ff       	jmp    8048730 <.plt>

080488c0 <gethostbyname@plt>:
 80488c0:	ff 25 6c d0 04 08    	jmp    *0x804d06c
 80488c6:	68 c0 00 00 00       	push   $0xc0
 80488cb:	e9 60 fe ff ff       	jmp    8048730 <.plt>

080488d0 <strtol@plt>:
 80488d0:	ff 25 70 d0 04 08    	jmp    *0x804d070
 80488d6:	68 c8 00 00 00       	push   $0xc8
 80488db:	e9 50 fe ff ff       	jmp    8048730 <.plt>

080488e0 <connect@plt>:
 80488e0:	ff 25 74 d0 04 08    	jmp    *0x804d074
 80488e6:	68 d0 00 00 00       	push   $0xd0
 80488eb:	e9 40 fe ff ff       	jmp    8048730 <.plt>

080488f0 <close@plt>:
 80488f0:	ff 25 78 d0 04 08    	jmp    *0x804d078
 80488f6:	68 d8 00 00 00       	push   $0xd8
 80488fb:	e9 30 fe ff ff       	jmp    8048730 <.plt>

08048900 <__ctype_b_loc@plt>:
 8048900:	ff 25 7c d0 04 08    	jmp    *0x804d07c
 8048906:	68 e0 00 00 00       	push   $0xe0
 804890b:	e9 20 fe ff ff       	jmp    8048730 <.plt>

Disassembly of section .plt.got:

08048910 <.plt.got>:
 8048910:	ff 25 fc cf 04 08    	jmp    *0x804cffc
 8048916:	66 90                	xchg   %ax,%ax

Disassembly of section .text:

08048920 <_start>:
 8048920:	31 ed                	xor    %ebp,%ebp
 8048922:	5e                   	pop    %esi
 8048923:	89 e1                	mov    %esp,%ecx
 8048925:	83 e4 f0             	and    $0xfffffff0,%esp
 8048928:	50                   	push   %eax
 8048929:	54                   	push   %esp
 804892a:	52                   	push   %edx
 804892b:	68 40 a2 04 08       	push   $0x804a240
 8048930:	68 d0 a1 04 08       	push   $0x804a1d0
 8048935:	51                   	push   %ecx
 8048936:	56                   	push   %esi
 8048937:	68 1d 8a 04 08       	push   $0x8048a1d
 804893c:	e8 ef fe ff ff       	call   8048830 <__libc_start_main@plt>
 8048941:	f4                   	hlt    
 8048942:	66 90                	xchg   %ax,%ax
 8048944:	66 90                	xchg   %ax,%ax
 8048946:	66 90                	xchg   %ax,%ax
 8048948:	66 90                	xchg   %ax,%ax
 804894a:	66 90                	xchg   %ax,%ax
 804894c:	66 90                	xchg   %ax,%ax
 804894e:	66 90                	xchg   %ax,%ax

08048950 <__x86.get_pc_thunk.bx>:
 8048950:	8b 1c 24             	mov    (%esp),%ebx
 8048953:	c3                   	ret    
 8048954:	66 90                	xchg   %ax,%ax
 8048956:	66 90                	xchg   %ax,%ax
 8048958:	66 90                	xchg   %ax,%ax
 804895a:	66 90                	xchg   %ax,%ax
 804895c:	66 90                	xchg   %ax,%ax
 804895e:	66 90                	xchg   %ax,%ax

08048960 <deregister_tm_clones>:
 8048960:	b8 c3 d7 04 08       	mov    $0x804d7c3,%eax
 8048965:	2d c0 d7 04 08       	sub    $0x804d7c0,%eax
 804896a:	83 f8 06             	cmp    $0x6,%eax
 804896d:	77 01                	ja     8048970 <deregister_tm_clones+0x10>
 804896f:	c3                   	ret    
 8048970:	b8 00 00 00 00       	mov    $0x0,%eax
 8048975:	85 c0                	test   %eax,%eax
 8048977:	74 f6                	je     804896f <deregister_tm_clones+0xf>
 8048979:	55                   	push   %ebp
 804897a:	89 e5                	mov    %esp,%ebp
 804897c:	83 ec 18             	sub    $0x18,%esp
 804897f:	c7 04 24 c0 d7 04 08 	movl   $0x804d7c0,(%esp)
 8048986:	ff d0                	call   *%eax
 8048988:	c9                   	leave  
 8048989:	c3                   	ret    
 804898a:	8d b6 00 00 00 00    	lea    0x0(%esi),%esi

08048990 <register_tm_clones>:
 8048990:	b8 c0 d7 04 08       	mov    $0x804d7c0,%eax
 8048995:	2d c0 d7 04 08       	sub    $0x804d7c0,%eax
 804899a:	c1 f8 02             	sar    $0x2,%eax
 804899d:	89 c2                	mov    %eax,%edx
 804899f:	c1 ea 1f             	shr    $0x1f,%edx
 80489a2:	01 d0                	add    %edx,%eax
 80489a4:	d1 f8                	sar    %eax
 80489a6:	75 01                	jne    80489a9 <register_tm_clones+0x19>
 80489a8:	c3                   	ret    
 80489a9:	ba 00 00 00 00       	mov    $0x0,%edx
 80489ae:	85 d2                	test   %edx,%edx
 80489b0:	74 f6                	je     80489a8 <register_tm_clones+0x18>
 80489b2:	55                   	push   %ebp
 80489b3:	89 e5                	mov    %esp,%ebp
 80489b5:	83 ec 18             	sub    $0x18,%esp
 80489b8:	89 44 24 04          	mov    %eax,0x4(%esp)
 80489bc:	c7 04 24 c0 d7 04 08 	movl   $0x804d7c0,(%esp)
 80489c3:	ff d2                	call   *%edx
 80489c5:	c9                   	leave  
 80489c6:	c3                   	ret    
 80489c7:	89 f6                	mov    %esi,%esi
 80489c9:	8d bc 27 00 00 00 00 	lea    0x0(%edi,%eiz,1),%edi

080489d0 <__do_global_dtors_aux>:
 80489d0:	80 3d e4 d7 04 08 00 	cmpb   $0x0,0x804d7e4
 80489d7:	75 13                	jne    80489ec <__do_global_dtors_aux+0x1c>
 80489d9:	55                   	push   %ebp
 80489da:	89 e5                	mov    %esp,%ebp
 80489dc:	83 ec 08             	sub    $0x8,%esp
 80489df:	e8 7c ff ff ff       	call   8048960 <deregister_tm_clones>
 80489e4:	c6 05 e4 d7 04 08 01 	movb   $0x1,0x804d7e4
 80489eb:	c9                   	leave  
 80489ec:	f3 c3                	repz ret 
 80489ee:	66 90                	xchg   %ax,%ax

080489f0 <frame_dummy>:
 80489f0:	a1 10 cf 04 08       	mov    0x804cf10,%eax
 80489f5:	85 c0                	test   %eax,%eax
 80489f7:	74 1f                	je     8048a18 <frame_dummy+0x28>
 80489f9:	b8 00 00 00 00       	mov    $0x0,%eax
 80489fe:	85 c0                	test   %eax,%eax
 8048a00:	74 16                	je     8048a18 <frame_dummy+0x28>
 8048a02:	55                   	push   %ebp
 8048a03:	89 e5                	mov    %esp,%ebp
 8048a05:	83 ec 18             	sub    $0x18,%esp
 8048a08:	c7 04 24 10 cf 04 08 	movl   $0x804cf10,(%esp)
 8048a0f:	ff d0                	call   *%eax
 8048a11:	c9                   	leave  
 8048a12:	e9 79 ff ff ff       	jmp    8048990 <register_tm_clones>
 8048a17:	90                   	nop
 8048a18:	e9 73 ff ff ff       	jmp    8048990 <register_tm_clones>

08048a1d <main>:
 8048a1d:	55                   	push   %ebp
 8048a1e:	89 e5                	mov    %esp,%ebp
 8048a20:	53                   	push   %ebx
 8048a21:	83 e4 f0             	and    $0xfffffff0,%esp
 8048a24:	83 ec 10             	sub    $0x10,%esp
 8048a27:	8b 45 08             	mov    0x8(%ebp),%eax
 8048a2a:	8b 5d 0c             	mov    0xc(%ebp),%ebx
 8048a2d:	83 f8 01             	cmp    $0x1,%eax
 8048a30:	75 0c                	jne    8048a3e <main+0x21>
 8048a32:	a1 c4 d7 04 08       	mov    0x804d7c4,%eax
 8048a37:	a3 ec d7 04 08       	mov    %eax,0x804d7ec
 8048a3c:	eb 64                	jmp    8048aa2 <main+0x85>
 8048a3e:	83 f8 02             	cmp    $0x2,%eax
 8048a41:	75 41                	jne    8048a84 <main+0x67>
 8048a43:	c7 44 24 04 6c a2 04 	movl   $0x804a26c,0x4(%esp)
 8048a4a:	08 
 8048a4b:	8b 43 04             	mov    0x4(%ebx),%eax
 8048a4e:	89 04 24             	mov    %eax,(%esp)
 8048a51:	e8 2a fe ff ff       	call   8048880 <fopen@plt>
 8048a56:	a3 ec d7 04 08       	mov    %eax,0x804d7ec
 8048a5b:	85 c0                	test   %eax,%eax
 8048a5d:	75 43                	jne    8048aa2 <main+0x85>
 8048a5f:	8b 43 04             	mov    0x4(%ebx),%eax
 8048a62:	89 44 24 08          	mov    %eax,0x8(%esp)
 8048a66:	8b 03                	mov    (%ebx),%eax
 8048a68:	89 44 24 04          	mov    %eax,0x4(%esp)
 8048a6c:	c7 04 24 6e a2 04 08 	movl   $0x804a26e,(%esp)
 8048a73:	e8 d8 fc ff ff       	call   8048750 <printf@plt>
 8048a78:	c7 04 24 08 00 00 00 	movl   $0x8,(%esp)
 8048a7f:	e8 9c fd ff ff       	call   8048820 <exit@plt>
 8048a84:	8b 03                	mov    (%ebx),%eax
 8048a86:	89 44 24 04          	mov    %eax,0x4(%esp)
 8048a8a:	c7 04 24 8b a2 04 08 	movl   $0x804a28b,(%esp)
 8048a91:	e8 ba fc ff ff       	call   8048750 <printf@plt>
 8048a96:	c7 04 24 08 00 00 00 	movl   $0x8,(%esp)
 8048a9d:	e8 7e fd ff ff       	call   8048820 <exit@plt>
 8048aa2:	e8 3f 07 00 00       	call   80491e6 <initialize_bomb>
 8048aa7:	c7 04 24 fc a2 04 08 	movl   $0x804a2fc,(%esp)
 8048aae:	e8 5d fd ff ff       	call   8048810 <puts@plt>
 8048ab3:	c7 04 24 38 a3 04 08 	movl   $0x804a338,(%esp)
 8048aba:	e8 51 fd ff ff       	call   8048810 <puts@plt>
 8048abf:	e8 e0 09 00 00       	call   80494a4 <read_line>
 8048ac4:	89 04 24             	mov    %eax,(%esp)
 8048ac7:	e8 04 01 00 00       	call   8048bd0 <phase_1>
 8048acc:	e8 07 0b 00 00       	call   80495d8 <phase_defused>
 8048ad1:	c7 04 24 64 a3 04 08 	movl   $0x804a364,(%esp)
 8048ad8:	e8 33 fd ff ff       	call   8048810 <puts@plt>
 8048add:	e8 c2 09 00 00       	call   80494a4 <read_line>
 8048ae2:	89 04 24             	mov    %eax,(%esp)
 8048ae5:	e8 2a 01 00 00       	call   8048c14 <phase_2>
 8048aea:	e8 e9 0a 00 00       	call   80495d8 <phase_defused>
 8048aef:	c7 04 24 a5 a2 04 08 	movl   $0x804a2a5,(%esp)
 8048af6:	e8 15 fd ff ff       	call   8048810 <puts@plt>
 8048afb:	e8 a4 09 00 00       	call   80494a4 <read_line>
 8048b00:	89 04 24             	mov    %eax,(%esp)
 8048b03:	e8 30 01 00 00       	call   8048c38 <phase_3>
 8048b08:	e8 cb 0a 00 00       	call   80495d8 <phase_defused>
 8048b0d:	c7 04 24 c3 a2 04 08 	movl   $0x804a2c3,(%esp)
 8048b14:	e8 f7 fc ff ff       	call   8048810 <puts@plt>
 8048b19:	e8 86 09 00 00       	call   80494a4 <read_line>
 8048b1e:	89 04 24             	mov    %eax,(%esp)
 8048b21:	e8 a6 01 00 00       	call   8048ccc <phase_4>
 8048b26:	e8 ad 0a 00 00       	call   80495d8 <phase_defused>
 8048b2b:	c7 04 24 90 a3 04 08 	movl   $0x804a390,(%esp)
 8048b32:	e8 d9 fc ff ff       	call   8048810 <puts@plt>
 8048b37:	e8 68 09 00 00       	call   80494a4 <read_line>
 8048b3c:	89 04 24             	mov    %eax,(%esp)
 8048b3f:	e8 d6 01 00 00       	call   8048d1a <phase_5>
 8048b44:	e8 8f 0a 00 00       	call   80495d8 <phase_defused>
 8048b49:	c7 04 24 d4 a2 04 08 	movl   $0x804a2d4,(%esp)
 8048b50:	e8 bb fc ff ff       	call   8048810 <puts@plt>
 8048b55:	e8 4a 09 00 00       	call   80494a4 <read_line>
 8048b5a:	89 04 24             	mov    %eax,(%esp)
 8048b5d:	e8 58 03 00 00       	call   8048eba <phase_6>
 8048b62:	e8 71 0a 00 00       	call   80495d8 <phase_defused>
 8048b67:	c7 04 24 b4 a3 04 08 	movl   $0x804a3b4,(%esp)
 8048b6e:	e8 9d fc ff ff       	call   8048810 <puts@plt>
 8048b73:	e8 2c 09 00 00       	call   80494a4 <read_line>
 8048b78:	89 04 24             	mov    %eax,(%esp)
 8048b7b:	e8 9a 03 00 00       	call   8048f1a <phase_7>
 8048b80:	e8 53 0a 00 00       	call   80495d8 <phase_defused>
 8048b85:	c7 04 24 d4 a3 04 08 	movl   $0x804a3d4,(%esp)
 8048b8c:	e8 7f fc ff ff       	call   8048810 <puts@plt>
 8048b91:	e8 0e 09 00 00       	call   80494a4 <read_line>
 8048b96:	89 04 24             	mov    %eax,(%esp)
 8048b99:	e8 c5 03 00 00       	call   8048f63 <phase_8>
 8048b9e:	e8 35 0a 00 00       	call   80495d8 <phase_defused>
 8048ba3:	c7 04 24 f2 a2 04 08 	movl   $0x804a2f2,(%esp)
 8048baa:	e8 61 fc ff ff       	call   8048810 <puts@plt>
 8048baf:	e8 f0 08 00 00       	call   80494a4 <read_line>
 8048bb4:	89 04 24             	mov    %eax,(%esp)
 8048bb7:	e8 cb 04 00 00       	call   8049087 <phase_9>
 8048bbc:	e8 17 0a 00 00       	call   80495d8 <phase_defused>
 8048bc1:	b8 00 00 00 00       	mov    $0x0,%eax
 8048bc6:	8b 5d fc             	mov    -0x4(%ebp),%ebx
 8048bc9:	c9                   	leave  
 8048bca:	c3                   	ret    
 8048bcb:	66 90                	xchg   %ax,%ax
 8048bcd:	66 90                	xchg   %ax,%ax
 8048bcf:	90                   	nop

08048bd0 <phase_1>:
 8048bd0:	83 ec 2c             	sub    $0x2c,%esp
 8048bd3:	c7 44 24 1c 00 00 00 	movl   $0x0,0x1c(%esp)
 8048bda:	00 
 8048bdb:	8d 44 24 1c          	lea    0x1c(%esp),%eax
 8048bdf:	89 44 24 08          	mov    %eax,0x8(%esp)
 8048be3:	c7 44 24 04 f9 a3 04 	movl   $0x804a3f9,0x4(%esp)
 8048bea:	08 
 8048beb:	8b 44 24 30          	mov    0x30(%esp),%eax
 8048bef:	89 04 24             	mov    %eax,(%esp)
 8048bf2:	e8 79 fc ff ff       	call   8048870 <__isoc99_sscanf@plt>
 8048bf7:	83 f8 01             	cmp    $0x1,%eax
 8048bfa:	74 05                	je     8048c01 <phase_1+0x31>
 8048bfc:	e8 14 08 00 00       	call   8049415 <explode_bomb>
 8048c01:	81 7c 24 1c 90 01 00 	cmpl   $0x190,0x1c(%esp)
 8048c08:	00 
 8048c09:	74 05                	je     8048c10 <phase_1+0x40>
 8048c0b:	e8 05 08 00 00       	call   8049415 <explode_bomb>
 8048c10:	83 c4 2c             	add    $0x2c,%esp
 8048c13:	c3                   	ret    

08048c14 <phase_2>:
 8048c14:	83 ec 1c             	sub    $0x1c,%esp
 8048c17:	c7 44 24 04 fc a3 04 	movl   $0x804a3fc,0x4(%esp)
 8048c1e:	08 
 8048c1f:	8b 44 24 20          	mov    0x20(%esp),%eax
 8048c23:	89 04 24             	mov    %eax,(%esp)
 8048c26:	e8 4f 05 00 00       	call   804917a <strings_not_equal>
 8048c2b:	85 c0                	test   %eax,%eax
 8048c2d:	74 05                	je     8048c34 <phase_2+0x20>
 8048c2f:	e8 e1 07 00 00       	call   8049415 <explode_bomb>
 8048c34:	83 c4 1c             	add    $0x1c,%esp
 8048c37:	c3                   	ret    

08048c38 <phase_3>:
 8048c38:	83 ec 1c             	sub    $0x1c,%esp
 8048c3b:	c7 04 24 20 a4 04 08 	movl   $0x804a420,(%esp)
 8048c42:	e8 14 05 00 00       	call   804915b <string_length>
 8048c47:	83 c0 01             	add    $0x1,%eax
 8048c4a:	89 04 24             	mov    %eax,(%esp)
 8048c4d:	e8 ae fb ff ff       	call   8048800 <malloc@plt>
 8048c52:	c7 00 57 68 79 20    	movl   $0x20796857,(%eax)
 8048c58:	c7 40 04 6d 61 6b 65 	movl   $0x656b616d,0x4(%eax)
 8048c5f:	c7 40 08 20 74 72 69 	movl   $0x69727420,0x8(%eax)
 8048c66:	c7 40 0c 6c 6c 69 6f 	movl   $0x6f696c6c,0xc(%eax)
 8048c6d:	c7 40 10 6e 73 20 77 	movl   $0x7720736e,0x10(%eax)
 8048c74:	c7 40 14 68 65 6e 20 	movl   $0x206e6568,0x14(%eax)
 8048c7b:	c7 40 18 77 65 20 63 	movl   $0x63206577,0x18(%eax)
 8048c82:	c7 40 1c 6f 75 6c 64 	movl   $0x646c756f,0x1c(%eax)
 8048c89:	c7 40 20 20 6d 61 6b 	movl   $0x6b616d20,0x20(%eax)
 8048c90:	c7 40 24 65 2e 2e 2e 	movl   $0x2e2e2e65,0x24(%eax)
 8048c97:	c7 40 28 20 62 69 6c 	movl   $0x6c696220,0x28(%eax)
 8048c9e:	c7 40 2c 6c 69 6f 6e 	movl   $0x6e6f696c,0x2c(%eax)
 8048ca5:	66 c7 40 30 73 3f    	movw   $0x3f73,0x30(%eax)
 8048cab:	c6 40 32 00          	movb   $0x0,0x32(%eax)
 8048caf:	89 44 24 04          	mov    %eax,0x4(%esp)
 8048cb3:	8b 44 24 20          	mov    0x20(%esp),%eax
 8048cb7:	89 04 24             	mov    %eax,(%esp)
 e048cba:	e8 bb 04 00 00       	call   804917a <strings_not_equal>
 8048cbf:	85 c0                	test   %eax,%eax
 8048cc1:	74 05                	je     8048cc8 <phase_3+0x90>
 8048cc3:	e8 4d 07 00 00       	call   8049415 <explode_bomb>
 8048cc8:	83 c4 1c             	add    $0x1c,%esp
 8048ccb:	c3                   	ret    

08048ccc <phase_4>:
 8048ccc:	53                   	push   %ebx
 8048ccd:	83 ec 38             	sub    $0x38,%esp
 8048cd0:	8d 44 24 18          	lea    0x18(%esp),%eax
 8048cd4:	89 44 24 04          	mov    %eax,0x4(%esp)
 8048cd8:	8b 44 24 40          	mov    0x40(%esp),%eax
 8048cdc:	89 04 24             	mov    %eax,(%esp)
 8048cdf:	e8 70 07 00 00       	call   8049454 <read_six_numbers>
 8048ce4:	83 7c 24 18 00       	cmpl   $0x0,0x18(%esp)
 8048ce9:	79 23                	jns    8048d0e <phase_4+0x42>
 8048ceb:	e8 25 07 00 00       	call   8049415 <explode_bomb>
 8048cf0:	eb 1c                	jmp    8048d0e <phase_4+0x42>
 8048cf2:	8d 04 9b             	lea    (%ebx,%ebx,4),%eax
 8048cf5:	03 44 9c 14          	add    0x14(%esp,%ebx,4),%eax
 8048cf9:	39 44 9c 18          	cmp    %eax,0x18(%esp,%ebx,4)
 8048cfd:	74 05                	je     8048d04 <phase_4+0x38>
 8048cff:	e8 11 07 00 00       	call   8049415 <explode_bomb>
 8048d04:	83 c3 01             	add    $0x1,%ebx
 8048d07:	83 fb 06             	cmp    $0x6,%ebx
 8048d0a:	75 e6                	jne    8048cf2 <phase_4+0x26>
 8048d0c:	eb 07                	jmp    8048d15 <phase_4+0x49>
 8048d0e:	bb 01 00 00 00       	mov    $0x1,%ebx
 8048d13:	eb dd                	jmp    8048cf2 <phase_4+0x26>
 8048d15:	83 c4 38             	add    $0x38,%esp
 8048d18:	5b                   	pop    %ebx
 8048d19:	c3                   	ret    

08048d1a <phase_5>:
 8048d1a:	83 ec 3c             	sub    $0x3c,%esp
 8048d1d:	8d 44 24 28          	lea    0x28(%esp),%eax
 8048d21:	89 44 24 10          	mov    %eax,0x10(%esp)
 8048d25:	8d 44 24 27          	lea    0x27(%esp),%eax
 8048d29:	89 44 24 0c          	mov    %eax,0xc(%esp)
 8048d2d:	8d 44 24 2c          	lea    0x2c(%esp),%eax
 8048d31:	89 44 24 08          	mov    %eax,0x8(%esp)
 8048d35:	c7 44 24 04 f3 a3 04 	movl   $0x804a3f3,0x4(%esp)
 8048d3c:	08 
 8048d3d:	8b 44 24 40          	mov    0x40(%esp),%eax
 8048d41:	89 04 24             	mov    %eax,(%esp)
 8048d44:	e8 27 fb ff ff       	call   8048870 <__isoc99_sscanf@plt>
 8048d49:	83 f8 02             	cmp    $0x2,%eax
 8048d4c:	7f 05                	jg     8048d53 <phase_5+0x39>
 8048d4e:	e8 c2 06 00 00       	call   8049415 <explode_bomb>
 8048d53:	83 7c 24 2c 07       	cmpl   $0x7,0x2c(%esp)
 8048d58:	0f 87 f9 00 00 00    	ja     8048e57 <phase_5+0x13d>
 8048d5e:	8b 44 24 2c          	mov    0x2c(%esp),%eax
 8048d62:	ff 24 85 60 a4 04 08 	jmp    *0x804a460(,%eax,4)
 8048d69:	b8 6b 00 00 00       	mov    $0x6b,%eax
 8048d6e:	83 7c 24 28 67       	cmpl   $0x67,0x28(%esp)
 8048d73:	0f 84 e8 00 00 00    	je     8048e61 <phase_5+0x147>
 8048d79:	e8 97 06 00 00       	call   8049415 <explode_bomb>
 8048d7e:	b8 6b 00 00 00       	mov    $0x6b,%eax
 8048d83:	e9 d9 00 00 00       	jmp    8048e61 <phase_5+0x147>
 8048d88:	b8 6f 00 00 00       	mov    $0x6f,%eax
 8048d8d:	81 7c 24 28 d7 00 00 	cmpl   $0xd7,0x28(%esp)
 8048d94:	00 
 8048d95:	0f 84 c6 00 00 00    	je     8048e61 <phase_5+0x147>
 8048d9b:	e8 75 06 00 00       	call   8049415 <explode_bomb>
 8048da0:	b8 6f 00 00 00       	mov    $0x6f,%eax
 8048da5:	e9 b7 00 00 00       	jmp    8048e61 <phase_5+0x147>
 8048daa:	b8 6c 00 00 00       	mov    $0x6c,%eax
 8048daf:	81 7c 24 28 a1 03 00 	cmpl   $0x3a1,0x28(%esp)
 8048db6:	00 
 8048db7:	0f 84 a4 00 00 00    	je     8048e61 <phase_5+0x147>
 8048dbd:	e8 53 06 00 00       	call   8049415 <explode_bomb>
 8048dc2:	b8 6c 00 00 00       	mov    $0x6c,%eax
 8048dc7:	e9 95 00 00 00       	jmp    8048e61 <phase_5+0x147>
 8048dcc:	b8 76 00 00 00       	mov    $0x76,%eax
 8048dd1:	81 7c 24 28 79 02 00 	cmpl   $0x279,0x28(%esp)
 8048dd8:	00 
 8048dd9:	0f 84 82 00 00 00    	je     8048e61 <phase_5+0x147>
 8048ddf:	e8 31 06 00 00       	call   8049415 <explode_bomb>
 8048de4:	b8 76 00 00 00       	mov    $0x76,%eax
 8048de9:	eb 76                	jmp    8048e61 <phase_5+0x147>
 8048deb:	b8 6f 00 00 00       	mov    $0x6f,%eax
 8048df0:	81 7c 24 28 e3 01 00 	cmpl   $0x1e3,0x28(%esp)
 8048df7:	00 
 8048df8:	74 67                	je     8048e61 <phase_5+0x147>
 8048dfa:	e8 16 06 00 00       	call   8049415 <explode_bomb>
 8048dff:	b8 6f 00 00 00       	mov    $0x6f,%eax
 8048e04:	eb 5b                	jmp    8048e61 <phase_5+0x147>
 8048e06:	b8 79 00 00 00       	mov    $0x79,%eax
 8048e0b:	81 7c 24 28 e9 01 00 	cmpl   $0x1e9,0x28(%esp)
 8048e12:	00 
 8048e13:	74 4c                	je     8048e61 <phase_5+0x147>
 8048e15:	e8 fb 05 00 00       	call   8049415 <explode_bomb>
 8048e1a:	b8 79 00 00 00       	mov    $0x79,%eax
 8048e1f:	eb 40                	jmp    8048e61 <phase_5+0x147>
 8048e21:	b8 61 00 00 00       	mov    $0x61,%eax
 8048e26:	81 7c 24 28 ce 00 00 	cmpl   $0xce,0x28(%esp)
 8048e2d:	00 
 8048e2e:	74 31                	je     8048e61 <phase_5+0x147>
 8048e30:	e8 e0 05 00 00       	call   8049415 <explode_bomb>
 8048e35:	b8 61 00 00 00       	mov    $0x61,%eax
 8048e3a:	eb 25                	jmp    8048e61 <phase_5+0x147>
 8048e3c:	b8 66 00 00 00       	mov    $0x66,%eax
 8048e41:	81 7c 24 28 e5 02 00 	cmpl   $0x2e5,0x28(%esp)
 8048e48:	00 
 8048e49:	74 16                	je     8048e61 <phase_5+0x147>
 8048e4b:	e8 c5 05 00 00       	call   8049415 <explode_bomb>
 8048e50:	b8 66 00 00 00       	mov    $0x66,%eax
 8048e55:	eb 0a                	jmp    8048e61 <phase_5+0x147>
 8048e57:	e8 b9 05 00 00       	call   8049415 <explode_bomb>
 8048e5c:	b8 65 00 00 00       	mov    $0x65,%eax
 8048e61:	3a 44 24 27          	cmp    0x27(%esp),%al
 8048e65:	74 05                	je     8048e6c <phase_5+0x152>
 8048e67:	e8 a9 05 00 00       	call   8049415 <explode_bomb>
 8048e6c:	83 c4 3c             	add    $0x3c,%esp
 8048e6f:	c3                   	ret    

08048e70 <func6>:
 8048e70:	57                   	push   %edi
 8048e71:	56                   	push   %esi
 8048e72:	53                   	push   %ebx
 8048e73:	83 ec 10             	sub    $0x10,%esp
 8048e76:	8b 5c 24 20          	mov    0x20(%esp),%ebx
 8048e7a:	8b 74 24 24          	mov    0x24(%esp),%esi
 8048e7e:	85 db                	test   %ebx,%ebx
 8048e80:	7e 2c                	jle    8048eae <func6+0x3e>
 8048e82:	89 f0                	mov    %esi,%eax
 8048e84:	83 fb 01             	cmp    $0x1,%ebx
 8048e87:	74 2a                	je     8048eb3 <func6+0x43>
 8048e89:	89 74 24 04          	mov    %esi,0x4(%esp)
 8048e8d:	8d 43 ff             	lea    -0x1(%ebx),%eax
 8048e90:	89 04 24             	mov    %eax,(%esp)
 8048e93:	e8 d8 ff ff ff       	call   8048e70 <func6>
 8048e98:	8d 3c 30             	lea    (%eax,%esi,1),%edi
 8048e9b:	89 74 24 04          	mov    %esi,0x4(%esp)
 8048e9f:	83 eb 02             	sub    $0x2,%ebx
 8048ea2:	89 1c 24             	mov    %ebx,(%esp)
 8048ea5:	e8 c6 ff ff ff       	call   8048e70 <func6>
 8048eaa:	01 f8                	add    %edi,%eax
 8048eac:	eb 05                	jmp    8048eb3 <func6+0x43>
 8048eae:	b8 00 00 00 00       	mov    $0x0,%eax
 8048eb3:	83 c4 10             	add    $0x10,%esp
 8048eb6:	5b                   	pop    %ebx
 8048eb7:	5e                   	pop    %esi
 8048eb8:	5f                   	pop    %edi
 8048eb9:	c3                   	ret    

08048eba <phase_6>:
 8048eba:	83 ec 2c             	sub    $0x2c,%esp
 8048ebd:	8d 44 24 1c          	lea    0x1c(%esp),%eax
 8048ec1:	89 44 24 0c          	mov    %eax,0xc(%esp)
 8048ec5:	8d 44 24 18          	lea    0x18(%esp),%eax
 8048ec9:	89 44 24 08          	mov    %eax,0x8(%esp)
 8048ecd:	c7 44 24 04 a1 a6 04 	movl   $0x804a6a1,0x4(%esp)
 8048ed4:	08 
 8048ed5:	8b 44 24 30          	mov    0x30(%esp),%eax
 8048ed9:	89 04 24             	mov    %eax,(%esp)
 8048edc:	e8 8f f9 ff ff       	call   8048870 <__isoc99_sscanf@plt>
 8048ee1:	83 f8 02             	cmp    $0x2,%eax
 8048ee4:	75 0c                	jne    8048ef2 <phase_6+0x38>
 8048ee6:	8b 44 24 1c          	mov    0x1c(%esp),%eax
 8048eea:	83 e8 02             	sub    $0x2,%eax
 8048eed:	83 f8 02             	cmp    $0x2,%eax
 8048ef0:	76 05                	jbe    8048ef7 <phase_6+0x3d>
 8048ef2:	e8 1e 05 00 00       	call   8049415 <explode_bomb>
 8048ef7:	8b 44 24 1c          	mov    0x1c(%esp),%eax
 8048efb:	89 44 24 04          	mov    %eax,0x4(%esp)
 8048eff:	c7 04 24 07 00 00 00 	movl   $0x7,(%esp)
 8048f06:	e8 65 ff ff ff       	call   8048e70 <func6>
 8048f0b:	3b 44 24 18          	cmp    0x18(%esp),%eax
 8048f0f:	74 05                	je     8048f16 <phase_6+0x5c>
 8048f11:	e8 ff 04 00 00       	call   8049415 <explode_bomb>
 8048f16:	83 c4 2c             	add    $0x2c,%esp
 8048f19:	c3                   	ret    

08048f1a <phase_7>:
 8048f1a:	53                   	push   %ebx
 8048f1b:	83 ec 18             	sub    $0x18,%esp
 8048f1e:	8b 5c 24 20          	mov    0x20(%esp),%ebx
 8048f22:	89 1c 24             	mov    %ebx,(%esp)
 8048f25:	e8 31 02 00 00       	call   804915b <string_length>
 8048f2a:	83 f8 06             	cmp    $0x6,%eax
 8048f2d:	74 05                	je     8048f34 <phase_7+0x1a>
 8048f2f:	e8 e1 04 00 00       	call   8049415 <explode_bomb>
 8048f34:	ba 00 00 00 00       	mov    $0x0,%edx
 8048f39:	b8 00 00 00 00       	mov    $0x0,%eax
 8048f3e:	0f b6 0c 03          	movzbl (%ebx,%eax,1),%ecx
 8048f42:	83 e1 0f             	and    $0xf,%ecx
 8048f45:	03 14 8d 80 a4 04 08 	add    0x804a480(,%ecx,4),%edx
 8048f4c:	83 c0 01             	add    $0x1,%eax
 8048f4f:	83 f8 06             	cmp    $0x6,%eax
 8048f52:	75 ea                	jne    8048f3e <phase_7+0x24>
 8048f54:	83 fa 3d             	cmp    $0x3d,%edx
 8048f57:	74 05                	je     8048f5e <phase_7+0x44>
 8048f59:	e8 b7 04 00 00       	call   8049415 <explode_bomb>
 8048f5e:	83 c4 18             	add    $0x18,%esp
 8048f61:	5b                   	pop    %ebx
 8048f62:	c3                   	ret    

08048f63 <phase_8>:
 8048f63:	56                   	push   %esi
 8048f64:	53                   	push   %ebx
 8048f65:	83 ec 44             	sub    $0x44,%esp
 8048f68:	8d 44 24 28          	lea    0x28(%esp),%eax
 8048f6c:	89 44 24 04          	mov    %eax,0x4(%esp)
 8048f70:	8b 44 24 50          	mov    0x50(%esp),%eax
 8048f74:	89 04 24             	mov    %eax,(%esp)
 8048f77:	e8 d8 04 00 00       	call   8049454 <read_six_numbers>
 8048f7c:	be 00 00 00 00       	mov    $0x0,%esi
 8048f81:	8b 44 b4 28          	mov    0x28(%esp,%esi,4),%eax
 8048f85:	83 e8 01             	sub    $0x1,%eax
 8048f88:	83 f8 05             	cmp    $0x5,%eax
 8048f8b:	76 05                	jbe    8048f92 <phase_8+0x2f>
 8048f8d:	e8 83 04 00 00       	call   8049415 <explode_bomb>
 8048f92:	83 c6 01             	add    $0x1,%esi
 8048f95:	83 fe 06             	cmp    $0x6,%esi
 8048f98:	75 07                	jne    8048fa1 <phase_8+0x3e>
 8048f9a:	bb 00 00 00 00       	mov    $0x0,%ebx
 8048f9f:	eb 38                	jmp    8048fd9 <phase_8+0x76>
 8048fa1:	89 f3                	mov    %esi,%ebx
 8048fa3:	8b 44 9c 28          	mov    0x28(%esp,%ebx,4),%eax
 8048fa7:	39 44 b4 24          	cmp    %eax,0x24(%esp,%esi,4)
 8048fab:	75 05                	jne    8048fb2 <phase_8+0x4f>
 8048fad:	e8 63 04 00 00       	call   8049415 <explode_bomb>
 8048fb2:	83 c3 01             	add    $0x1,%ebx
 8048fb5:	83 fb 05             	cmp    $0x5,%ebx
 8048fb8:	7e e9                	jle    8048fa3 <phase_8+0x40>
 8048fba:	eb c5                	jmp    8048f81 <phase_8+0x1e>
 8048fbc:	8b 52 08             	mov    0x8(%edx),%edx
 8048fbf:	83 c0 01             	add    $0x1,%eax
 8048fc2:	39 c8                	cmp    %ecx,%eax
 8048fc4:	75 f6                	jne    8048fbc <phase_8+0x59>
 8048fc6:	eb 05                	jmp    8048fcd <phase_8+0x6a>
 8048fc8:	ba 54 d1 04 08       	mov    $0x804d154,%edx
 8048fcd:	89 54 b4 10          	mov    %edx,0x10(%esp,%esi,4)
 8048fd1:	83 c3 01             	add    $0x1,%ebx
 8048fd4:	83 fb 06             	cmp    $0x6,%ebx
 8048fd7:	74 17                	je     8048ff0 <phase_8+0x8d>
 8048fd9:	89 de                	mov    %ebx,%esi
 8048fdb:	8b 4c 9c 28          	mov    0x28(%esp,%ebx,4),%ecx
 8048fdf:	83 f9 01             	cmp    $0x1,%ecx
 8048fe2:	7e e4                	jle    8048fc8 <phase_8+0x65>
 8048fe4:	b8 01 00 00 00       	mov    $0x1,%eax
 8048fe9:	ba 54 d1 04 08       	mov    $0x804d154,%edx
 8048fee:	eb cc                	jmp    8048fbc <phase_8+0x59>
 8048ff0:	8b 5c 24 10          	mov    0x10(%esp),%ebx
 8048ff4:	8d 44 24 14          	lea    0x14(%esp),%eax
 8048ff8:	8d 74 24 28          	lea    0x28(%esp),%esi
 8048ffc:	89 d9                	mov    %ebx,%ecx
 8048ffe:	8b 10                	mov    (%eax),%edx
 8049000:	89 51 08             	mov    %edx,0x8(%ecx)
 8049003:	83 c0 04             	add    $0x4,%eax
 8049006:	39 f0                	cmp    %esi,%eax
 8049008:	74 04                	je     804900e <phase_8+0xab>
 804900a:	89 d1                	mov    %edx,%ecx
 804900c:	eb f0                	jmp    8048ffe <phase_8+0x9b>
 804900e:	c7 42 08 00 00 00 00 	movl   $0x0,0x8(%edx)
 8049015:	be 05 00 00 00       	mov    $0x5,%esi
 804901a:	8b 43 08             	mov    0x8(%ebx),%eax
 804901d:	8b 00                	mov    (%eax),%eax
 804901f:	39 03                	cmp    %eax,(%ebx)
 8049021:	7e 05                	jle    8049028 <phase_8+0xc5>
 8049023:	e8 ed 03 00 00       	call   8049415 <explode_bomb>
 8049028:	8b 5b 08             	mov    0x8(%ebx),%ebx
 804902b:	83 ee 01             	sub    $0x1,%esi
 804902e:	75 ea                	jne    804901a <phase_8+0xb7>
 8049030:	83 c4 44             	add    $0x44,%esp
 8049033:	5b                   	pop    %ebx
 8049034:	5e                   	pop    %esi
 8049035:	c3                   	ret    

08049036 <fun9>:
 8049036:	53                   	push   %ebx
 8049037:	83 ec 18             	sub    $0x18,%esp
 804903a:	8b 54 24 20          	mov    0x20(%esp),%edx
 804903e:	8b 4c 24 24          	mov    0x24(%esp),%ecx
 8049042:	85 d2                	test   %edx,%edx
 8049044:	74 37                	je     804907d <fun9+0x47>
 8049046:	8b 1a                	mov    (%edx),%ebx
 8049048:	39 cb                	cmp    %ecx,%ebx
 804904a:	7e 13                	jle    804905f <fun9+0x29>
 804904c:	89 4c 24 04          	mov    %ecx,0x4(%esp)
 8049050:	8b 42 04             	mov    0x4(%edx),%eax
 8049053:	89 04 24             	mov    %eax,(%esp)
 8049056:	e8 db ff ff ff       	call   8049036 <fun9>
 804905b:	01 c0                	add    %eax,%eax
 804905d:	eb 23                	jmp    8049082 <fun9+0x4c>
 804905f:	b8 00 00 00 00       	mov    $0x0,%eax
 8049064:	39 cb                	cmp    %ecx,%ebx
 8049066:	74 1a                	je     8049082 <fun9+0x4c>
 8049068:	89 4c 24 04          	mov    %ecx,0x4(%esp)
 804906c:	8b 42 08             	mov    0x8(%edx),%eax
 804906f:	89 04 24             	mov    %eax,(%esp)
 8049072:	e8 bf ff ff ff       	call   8049036 <fun9>
 8049077:	8d 44 00 01          	lea    0x1(%eax,%eax,1),%eax
 804907b:	eb 05                	jmp    8049082 <fun9+0x4c>
 804907d:	b8 ff ff ff ff       	mov    $0xffffffff,%eax
 8049082:	83 c4 18             	add    $0x18,%esp
 8049085:	5b                   	pop    %ebx
 8049086:	c3                   	ret    

08049087 <phase_9>:
 8049087:	53                   	push   %ebx
 8049088:	83 ec 18             	sub    $0x18,%esp
 804908b:	c7 44 24 08 0a 00 00 	movl   $0xa,0x8(%esp)
 8049092:	00 
 8049093:	c7 44 24 04 00 00 00 	movl   $0x0,0x4(%esp)
 804909a:	00 
 804909b:	8b 44 24 20          	mov    0x20(%esp),%eax
 804909f:	89 04 24             	mov    %eax,(%esp)
 80490a2:	e8 29 f8 ff ff       	call   80488d0 <strtol@plt>
 80490a7:	89 c3                	mov    %eax,%ebx
 80490a9:	8d 40 ff             	lea    -0x1(%eax),%eax
 80490ac:	3d ec 03 00 00       	cmp    $0x3ec,%eax
 80490b1:	76 05                	jbe    80490b8 <phase_9+0x31>
 80490b3:	e8 5d 03 00 00       	call   8049415 <explode_bomb>
 80490b8:	89 5c 24 04          	mov    %ebx,0x4(%esp)
 80490bc:	c7 04 24 a0 d0 04 08 	movl   $0x804d0a0,(%esp)
 80490c3:	e8 6e ff ff ff       	call   8049036 <fun9>
 80490c8:	83 f8 07             	cmp    $0x7,%eax
 80490cb:	74 05                	je     80490d2 <phase_9+0x4b>
 80490cd:	e8 43 03 00 00       	call   8049415 <explode_bomb>
 80490d2:	83 c4 18             	add    $0x18,%esp
 80490d5:	5b                   	pop    %ebx
 80490d6:	c3                   	ret    
 80490d7:	66 90                	xchg   %ax,%ax
 80490d9:	66 90                	xchg   %ax,%ax
 80490db:	66 90                	xchg   %ax,%ax
 80490dd:	66 90                	xchg   %ax,%ax
 80490df:	90                   	nop

080490e0 <sig_handler>:
 80490e0:	83 ec 1c             	sub    $0x1c,%esp
 80490e3:	c7 04 24 c0 a4 04 08 	movl   $0x804a4c0,(%esp)
 80490ea:	e8 21 f7 ff ff       	call   8048810 <puts@plt>
 80490ef:	c7 04 24 03 00 00 00 	movl   $0x3,(%esp)
 80490f6:	e8 a5 f6 ff ff       	call   80487a0 <sleep@plt>
 80490fb:	c7 04 24 1d a6 04 08 	movl   $0x804a61d,(%esp)
 8049102:	e8 49 f6 ff ff       	call   8048750 <printf@plt>
 8049107:	a1 e0 d7 04 08       	mov    0x804d7e0,%eax
 804910c:	89 04 24             	mov    %eax,(%esp)
 804910f:	e8 4c f6 ff ff       	call   8048760 <fflush@plt>
 8049114:	c7 04 24 01 00 00 00 	movl   $0x1,(%esp)
 804911b:	e8 80 f6 ff ff       	call   80487a0 <sleep@plt>
 8049120:	c7 04 24 25 a6 04 08 	movl   $0x804a625,(%esp)
 8049127:	e8 e4 f6 ff ff       	call   8048810 <puts@plt>
 804912c:	c7 04 24 10 00 00 00 	movl   $0x10,(%esp)
 8049133:	e8 e8 f6 ff ff       	call   8048820 <exit@plt>

08049138 <invalid_phase>:
 8049138:	83 ec 1c             	sub    $0x1c,%esp
 804913b:	8b 44 24 20          	mov    0x20(%esp),%eax
 804913f:	89 44 24 04          	mov    %eax,0x4(%esp)
 8049143:	c7 04 24 2d a6 04 08 	movl   $0x804a62d,(%esp)
 804914a:	e8 01 f6 ff ff       	call   8048750 <printf@plt>
 804914f:	c7 04 24 08 00 00 00 	movl   $0x8,(%esp)
 8049156:	e8 c5 f6 ff ff       	call   8048820 <exit@plt>

0804915b <string_length>:
 804915b:	8b 54 24 04          	mov    0x4(%esp),%edx
 804915f:	80 3a 00             	cmpb   $0x0,(%edx)
 8049162:	74 10                	je     8049174 <string_length+0x19>
 8049164:	b8 00 00 00 00       	mov    $0x0,%eax
 8049169:	83 c0 01             	add    $0x1,%eax
 804916c:	80 3c 02 00          	cmpb   $0x0,(%edx,%eax,1)
 8049170:	75 f7                	jne    8049169 <string_length+0xe>
 8049172:	f3 c3                	repz ret 
 8049174:	b8 00 00 00 00       	mov    $0x0,%eax
 8049179:	c3                   	ret    

0804917a <strings_not_equal>:
 804917a:	57                   	push   %edi
 804917b:	56                   	push   %esi
 804917c:	53                   	push   %ebx
 804917d:	83 ec 04             	sub    $0x4,%esp
 8049180:	8b 5c 24 14          	mov    0x14(%esp),%ebx
 8049184:	8b 74 24 18          	mov    0x18(%esp),%esi
 8049188:	89 1c 24             	mov    %ebx,(%esp)
 804918b:	e8 cb ff ff ff       	call   804915b <string_length>
 8049190:	89 c7                	mov    %eax,%edi
 8049192:	89 34 24             	mov    %esi,(%esp)
 8049195:	e8 c1 ff ff ff       	call   804915b <string_length>
 804919a:	ba 01 00 00 00       	mov    $0x1,%edx
 804919f:	39 c7                	cmp    %eax,%edi
 80491a1:	75 3a                	jne    80491dd <strings_not_equal+0x63>
 80491a3:	0f b6 03             	movzbl (%ebx),%eax
 80491a6:	84 c0                	test   %al,%al
 80491a8:	74 20                	je     80491ca <strings_not_equal+0x50>
 80491aa:	3a 06                	cmp    (%esi),%al
 80491ac:	74 08                	je     80491b6 <strings_not_equal+0x3c>
 80491ae:	66 90                	xchg   %ax,%ax
 80491b0:	eb 1f                	jmp    80491d1 <strings_not_equal+0x57>
 80491b2:	3a 06                	cmp    (%esi),%al
 80491b4:	75 22                	jne    80491d8 <strings_not_equal+0x5e>
 80491b6:	83 c3 01             	add    $0x1,%ebx
 80491b9:	83 c6 01             	add    $0x1,%esi
 80491bc:	0f b6 03             	movzbl (%ebx),%eax
 80491bf:	84 c0                	test   %al,%al
 80491c1:	75 ef                	jne    80491b2 <strings_not_equal+0x38>
 80491c3:	ba 00 00 00 00       	mov    $0x0,%edx
 80491c8:	eb 13                	jmp    80491dd <strings_not_equal+0x63>
 80491ca:	ba 00 00 00 00       	mov    $0x0,%edx
 80491cf:	eb 0c                	jmp    80491dd <strings_not_equal+0x63>
 80491d1:	ba 01 00 00 00       	mov    $0x1,%edx
 80491d6:	eb 05                	jmp    80491dd <strings_not_equal+0x63>
 80491d8:	ba 01 00 00 00       	mov    $0x1,%edx
 80491dd:	89 d0                	mov    %edx,%eax
 80491df:	83 c4 04             	add    $0x4,%esp
 80491e2:	5b                   	pop    %ebx
 80491e3:	5e                   	pop    %esi
 80491e4:	5f                   	pop    %edi
 80491e5:	c3                   	ret    

080491e6 <initialize_bomb>:
 80491e6:	56                   	push   %esi
 80491e7:	53                   	push   %ebx
 80491e8:	81 ec 54 20 00 00    	sub    $0x2054,%esp
 80491ee:	c7 44 24 04 e0 90 04 	movl   $0x80490e0,0x4(%esp)
 80491f5:	08 
 80491f6:	c7 04 24 02 00 00 00 	movl   $0x2,(%esp)
 80491fd:	e8 8e f5 ff ff       	call   8048790 <signal@plt>
 8049202:	c7 44 24 04 40 00 00 	movl   $0x40,0x4(%esp)
 8049209:	00 
 804920a:	8d 84 24 10 20 00 00 	lea    0x2010(%esp),%eax
 8049211:	89 04 24             	mov    %eax,(%esp)
 8049214:	e8 c7 f5 ff ff       	call   80487e0 <gethostname@plt>
 8049219:	85 c0                	test   %eax,%eax
 804921b:	75 17                	jne    8049234 <initialize_bomb+0x4e>
 804921d:	a1 c0 d5 04 08       	mov    0x804d5c0,%eax
 8049222:	bb 00 00 00 00       	mov    $0x0,%ebx
 8049227:	8d b4 24 10 20 00 00 	lea    0x2010(%esp),%esi
 804922e:	85 c0                	test   %eax,%eax
 8049230:	75 1a                	jne    804924c <initialize_bomb+0x66>
 8049232:	eb 58                	jmp    804928c <initialize_bomb+0xa6>
 8049234:	c7 04 24 f8 a4 04 08 	movl   $0x804a4f8,(%esp)
 804923b:	e8 d0 f5 ff ff       	call   8048810 <puts@plt>
 8049240:	c7 04 24 08 00 00 00 	movl   $0x8,(%esp)
 8049247:	e8 d4 f5 ff ff       	call   8048820 <exit@plt>
 804924c:	89 74 24 04          	mov    %esi,0x4(%esp)
 8049250:	89 04 24             	mov    %eax,(%esp)
 8049253:	e8 08 f6 ff ff       	call   8048860 <strcasecmp@plt>
 8049258:	85 c0                	test   %eax,%eax
 804925a:	74 48                	je     80492a4 <initialize_bomb+0xbe>
 804925c:	83 c3 01             	add    $0x1,%ebx
 804925f:	8b 04 9d c0 d5 04 08 	mov    0x804d5c0(,%ebx,4),%eax
 8049266:	85 c0                	test   %eax,%eax
 8049268:	75 e2                	jne    804924c <initialize_bomb+0x66>
 804926a:	eb 20                	jmp    804928c <initialize_bomb+0xa6>
 804926c:	8d 44 24 10          	lea    0x10(%esp),%eax
 8049270:	89 44 24 04          	mov    %eax,0x4(%esp)
 8049274:	c7 04 24 3e a6 04 08 	movl   $0x804a63e,(%esp)
 804927b:	e8 d0 f4 ff ff       	call   8048750 <printf@plt>
 8049280:	c7 04 24 08 00 00 00 	movl   $0x8,(%esp)
 8049287:	e8 94 f5 ff ff       	call   8048820 <exit@plt>
 804928c:	c7 04 24 30 a5 04 08 	movl   $0x804a530,(%esp)
 8049293:	e8 78 f5 ff ff       	call   8048810 <puts@plt>
 8049298:	c7 04 24 08 00 00 00 	movl   $0x8,(%esp)
 804929f:	e8 7c f5 ff ff       	call   8048820 <exit@plt>
 80492a4:	8d 44 24 10          	lea    0x10(%esp),%eax
 80492a8:	89 04 24             	mov    %eax,(%esp)
 80492ab:	e8 ba 0c 00 00       	call   8049f6a <init_driver>
 80492b0:	85 c0                	test   %eax,%eax
 80492b2:	78 b8                	js     804926c <initialize_bomb+0x86>
 80492b4:	81 c4 54 20 00 00    	add    $0x2054,%esp
 80492ba:	5b                   	pop    %ebx
 80492bb:	5e                   	pop    %esi
 80492bc:	c3                   	ret    

080492bd <initialize_bomb_solve>:
 80492bd:	f3 c3                	repz ret 

080492bf <blank_line>:
 80492bf:	56                   	push   %esi
 80492c0:	53                   	push   %ebx
 80492c1:	83 ec 04             	sub    $0x4,%esp
 80492c4:	8b 5c 24 10          	mov    0x10(%esp),%ebx
 80492c8:	eb 16                	jmp    80492e0 <blank_line+0x21>
 80492ca:	e8 31 f6 ff ff       	call   8048900 <__ctype_b_loc@plt>
 80492cf:	83 c3 01             	add    $0x1,%ebx
 80492d2:	89 f2                	mov    %esi,%edx
 80492d4:	0f be f2             	movsbl %dl,%esi
 80492d7:	8b 00                	mov    (%eax),%eax
 80492d9:	f6 44 70 01 20       	testb  $0x20,0x1(%eax,%esi,2)
 80492de:	74 10                	je     80492f0 <blank_line+0x31>
 80492e0:	0f b6 33             	movzbl (%ebx),%esi
 80492e3:	89 f0                	mov    %esi,%eax
 80492e5:	84 c0                	test   %al,%al
 80492e7:	75 e1                	jne    80492ca <blank_line+0xb>
 80492e9:	b8 01 00 00 00       	mov    $0x1,%eax
 80492ee:	eb 05                	jmp    80492f5 <blank_line+0x36>
 80492f0:	b8 00 00 00 00       	mov    $0x0,%eax
 80492f5:	83 c4 04             	add    $0x4,%esp
 80492f8:	5b                   	pop    %ebx
 80492f9:	5e                   	pop    %esi
 80492fa:	c3                   	ret    

080492fb <skip>:
 80492fb:	53                   	push   %ebx
 80492fc:	83 ec 18             	sub    $0x18,%esp
 80492ff:	a1 ec d7 04 08       	mov    0x804d7ec,%eax
 8049304:	89 44 24 08          	mov    %eax,0x8(%esp)
 8049308:	c7 44 24 04 50 00 00 	movl   $0x50,0x4(%esp)
 804930f:	00 
 8049310:	a1 e8 d7 04 08       	mov    0x804d7e8,%eax
 8049315:	8d 04 80             	lea    (%eax,%eax,4),%eax
 8049318:	c1 e0 04             	shl    $0x4,%eax
 804931b:	05 00 d8 04 08       	add    $0x804d800,%eax
 8049320:	89 04 24             	mov    %eax,(%esp)
 8049323:	e8 58 f4 ff ff       	call   8048780 <fgets@plt>
 8049328:	89 c3                	mov    %eax,%ebx
 804932a:	85 c0                	test   %eax,%eax
 804932c:	74 0c                	je     804933a <skip+0x3f>
 804932e:	89 04 24             	mov    %eax,(%esp)
 8049331:	e8 89 ff ff ff       	call   80492bf <blank_line>
 8049336:	85 c0                	test   %eax,%eax
 8049338:	75 c5                	jne    80492ff <skip+0x4>
 804933a:	89 d8                	mov    %ebx,%eax
 804933c:	83 c4 18             	add    $0x18,%esp
 804933f:	5b                   	pop    %ebx
 8049340:	c3                   	ret    

08049341 <send_msg>:
 8049341:	57                   	push   %edi
 8049342:	53                   	push   %ebx
 8049343:	81 ec 24 40 00 00    	sub    $0x4024,%esp
 8049349:	8b 15 e8 d7 04 08    	mov    0x804d7e8,%edx
 804934f:	8d 5c 92 fb          	lea    -0x5(%edx,%edx,4),%ebx
 8049353:	c1 e3 04             	shl    $0x4,%ebx
 8049356:	81 c3 00 d8 04 08    	add    $0x804d800,%ebx
 804935c:	89 df                	mov    %ebx,%edi
 804935e:	b8 00 00 00 00       	mov    $0x0,%eax
 8049363:	b9 ff ff ff ff       	mov    $0xffffffff,%ecx
 8049368:	f2 ae                	repnz scas %es:(%edi),%al
 804936a:	f7 d1                	not    %ecx
 804936c:	83 c1 63             	add    $0x63,%ecx
 804936f:	81 f9 00 20 00 00    	cmp    $0x2000,%ecx
 8049375:	76 18                	jbe    804938f <send_msg+0x4e>
 8049377:	c7 04 24 68 a5 04 08 	movl   $0x804a568,(%esp)
 804937e:	e8 cd f3 ff ff       	call   8048750 <printf@plt>
 8049383:	c7 04 24 08 00 00 00 	movl   $0x8,(%esp)
 804938a:	e8 91 f4 ff ff       	call   8048820 <exit@plt>
 804938f:	83 bc 24 30 40 00 00 	cmpl   $0x0,0x4030(%esp)
 8049396:	00 
 8049397:	b8 58 a6 04 08       	mov    $0x804a658,%eax
 804939c:	b9 60 a6 04 08       	mov    $0x804a660,%ecx
 80493a1:	0f 44 c1             	cmove  %ecx,%eax
 80493a4:	89 5c 24 14          	mov    %ebx,0x14(%esp)
 80493a8:	89 54 24 10          	mov    %edx,0x10(%esp)
 80493ac:	89 44 24 0c          	mov    %eax,0xc(%esp)
 80493b0:	a1 a0 d5 04 08       	mov    0x804d5a0,%eax
 80493b5:	89 44 24 08          	mov    %eax,0x8(%esp)
 80493b9:	c7 44 24 04 69 a6 04 	movl   $0x804a669,0x4(%esp)
 80493c0:	08 
 80493c1:	8d 9c 24 20 20 00 00 	lea    0x2020(%esp),%ebx
 80493c8:	89 1c 24             	mov    %ebx,(%esp)
 80493cb:	e8 d0 f4 ff ff       	call   80488a0 <sprintf@plt>
 80493d0:	8d 44 24 20          	lea    0x20(%esp),%eax
 80493d4:	89 44 24 0c          	mov    %eax,0xc(%esp)
 80493d8:	c7 44 24 08 00 00 00 	movl   $0x0,0x8(%esp)
 80493df:	00 
 80493e0:	89 5c 24 04          	mov    %ebx,0x4(%esp)
 80493e4:	c7 04 24 a0 d1 04 08 	movl   $0x804d1a0,(%esp)
 80493eb:	e8 52 0d 00 00       	call   804a142 <driver_post>
 80493f0:	85 c0                	test   %eax,%eax
 80493f2:	79 18                	jns    804940c <send_msg+0xcb>
 80493f4:	8d 44 24 20          	lea    0x20(%esp),%eax
 80493f8:	89 04 24             	mov    %eax,(%esp)
 80493fb:	e8 10 f4 ff ff       	call   8048810 <puts@plt>
 8049400:	c7 04 24 00 00 00 00 	movl   $0x0,(%esp)
 8049407:	e8 14 f4 ff ff       	call   8048820 <exit@plt>
 804940c:	81 c4 24 40 00 00    	add    $0x4024,%esp
 8049412:	5b                   	pop    %ebx
 8049413:	5f                   	pop    %edi
 8049414:	c3                   	ret    

08049415 <explode_bomb>:
 8049415:	83 ec 1c             	sub    $0x1c,%esp
 8049418:	c7 04 24 75 a6 04 08 	movl   $0x804a675,(%esp)
 804941f:	e8 ec f3 ff ff       	call   8048810 <puts@plt>
 8049424:	c7 04 24 7e a6 04 08 	movl   $0x804a67e,(%esp)
 804942b:	e8 e0 f3 ff ff       	call   8048810 <puts@plt>
 8049430:	c7 04 24 00 00 00 00 	movl   $0x0,(%esp)
 8049437:	e8 05 ff ff ff       	call   8049341 <send_msg>
 804943c:	c7 04 24 8c a5 04 08 	movl   $0x804a58c,(%esp)
 8049443:	e8 c8 f3 ff ff       	call   8048810 <puts@plt>
 8049448:	c7 04 24 08 00 00 00 	movl   $0x8,(%esp)
 804944f:	e8 cc f3 ff ff       	call   8048820 <exit@plt>

08049454 <read_six_numbers>:
 8049454:	83 ec 2c             	sub    $0x2c,%esp
 8049457:	8b 44 24 34          	mov    0x34(%esp),%eax
 804945b:	8d 50 14             	lea    0x14(%eax),%edx
 804945e:	89 54 24 1c          	mov    %edx,0x1c(%esp)
 8049462:	8d 50 10             	lea    0x10(%eax),%edx
 8049465:	89 54 24 18          	mov    %edx,0x18(%esp)
 8049469:	8d 50 0c             	lea    0xc(%eax),%edx
 804946c:	89 54 24 14          	mov    %edx,0x14(%esp)
 8049470:	8d 50 08             	lea    0x8(%eax),%edx
 8049473:	89 54 24 10          	mov    %edx,0x10(%esp)
 8049477:	8d 50 04             	lea    0x4(%eax),%edx
 804947a:	89 54 24 0c          	mov    %edx,0xc(%esp)
 804947e:	89 44 24 08          	mov    %eax,0x8(%esp)
 8049482:	c7 44 24 04 95 a6 04 	movl   $0x804a695,0x4(%esp)
 8049489:	08 
 804948a:	8b 44 24 30          	mov    0x30(%esp),%eax
 804948e:	89 04 24             	mov    %eax,(%esp)
 8049491:	e8 da f3 ff ff       	call   8048870 <__isoc99_sscanf@plt>
 8049496:	83 f8 05             	cmp    $0x5,%eax
 8049499:	7f 05                	jg     80494a0 <read_six_numbers+0x4c>
 804949b:	e8 75 ff ff ff       	call   8049415 <explode_bomb>
 80494a0:	83 c4 2c             	add    $0x2c,%esp
 80494a3:	c3                   	ret    

080494a4 <read_line>:
 80494a4:	57                   	push   %edi
 80494a5:	56                   	push   %esi
 80494a6:	53                   	push   %ebx
 80494a7:	83 ec 10             	sub    $0x10,%esp
 80494aa:	e8 4c fe ff ff       	call   80492fb <skip>
 80494af:	85 c0                	test   %eax,%eax
 80494b1:	75 6c                	jne    804951f <read_line+0x7b>
 80494b3:	a1 c4 d7 04 08       	mov    0x804d7c4,%eax
 80494b8:	39 05 ec d7 04 08    	cmp    %eax,0x804d7ec
 80494be:	75 18                	jne    80494d8 <read_line+0x34>
 80494c0:	c7 04 24 a7 a6 04 08 	movl   $0x804a6a7,(%esp)
 80494c7:	e8 44 f3 ff ff       	call   8048810 <puts@plt>
 80494cc:	c7 04 24 08 00 00 00 	movl   $0x8,(%esp)
 80494d3:	e8 48 f3 ff ff       	call   8048820 <exit@plt>
 80494d8:	c7 04 24 c5 a6 04 08 	movl   $0x804a6c5,(%esp)
 80494df:	e8 0c f3 ff ff       	call   80487f0 <getenv@plt>
 80494e4:	85 c0                	test   %eax,%eax
 80494e6:	74 0c                	je     80494f4 <read_line+0x50>
 80494e8:	c7 04 24 00 00 00 00 	movl   $0x0,(%esp)
 80494ef:	e8 2c f3 ff ff       	call   8048820 <exit@plt>
 80494f4:	a1 c4 d7 04 08       	mov    0x804d7c4,%eax
 80494f9:	a3 ec d7 04 08       	mov    %eax,0x804d7ec
 80494fe:	e8 f8 fd ff ff       	call   80492fb <skip>
 8049503:	85 c0                	test   %eax,%eax
 8049505:	75 18                	jne    804951f <read_line+0x7b>
 8049507:	c7 04 24 a7 a6 04 08 	movl   $0x804a6a7,(%esp)
 804950e:	e8 fd f2 ff ff       	call   8048810 <puts@plt>
 8049513:	c7 04 24 00 00 00 00 	movl   $0x0,(%esp)
 804951a:	e8 01 f3 ff ff       	call   8048820 <exit@plt>
 804951f:	8b 15 e8 d7 04 08    	mov    0x804d7e8,%edx
 8049525:	8d 1c 92             	lea    (%edx,%edx,4),%ebx
 8049528:	c1 e3 04             	shl    $0x4,%ebx
 804952b:	81 c3 00 d8 04 08    	add    $0x804d800,%ebx
 8049531:	89 df                	mov    %ebx,%edi
 8049533:	b8 00 00 00 00       	mov    $0x0,%eax
 8049538:	b9 ff ff ff ff       	mov    $0xffffffff,%ecx
 804953d:	f2 ae                	repnz scas %es:(%edi),%al
 804953f:	f7 d1                	not    %ecx
 8049541:	83 e9 01             	sub    $0x1,%ecx
 8049544:	83 f9 4e             	cmp    $0x4e,%ecx
 8049547:	7e 6f                	jle    80495b8 <read_line+0x114>
 8049549:	c7 04 24 d0 a6 04 08 	movl   $0x804a6d0,(%esp)
 8049550:	e8 bb f2 ff ff       	call   8048810 <puts@plt>
 8049555:	a1 e8 d7 04 08       	mov    0x804d7e8,%eax
 804955a:	8d 50 01             	lea    0x1(%eax),%edx
 804955d:	89 15 e8 d7 04 08    	mov    %edx,0x804d7e8
 8049563:	6b c0 50             	imul   $0x50,%eax,%eax
 8049566:	8d 90 00 d8 04 08    	lea    0x804d800(%eax),%edx
 804956c:	89 d7                	mov    %edx,%edi
 804956e:	be eb a6 04 08       	mov    $0x804a6eb,%esi
 8049573:	b8 10 00 00 00       	mov    $0x10,%eax
 8049578:	f6 c2 01             	test   $0x1,%dl
 804957b:	74 03                	je     8049580 <read_line+0xdc>
 804957d:	a4                   	movsb  %ds:(%esi),%es:(%edi)
 804957e:	b0 0f                	mov    $0xf,%al
 8049580:	f7 c7 02 00 00 00    	test   $0x2,%edi
 8049586:	74 05                	je     804958d <read_line+0xe9>
 8049588:	66 a5                	movsw  %ds:(%esi),%es:(%edi)
 804958a:	83 e8 02             	sub    $0x2,%eax
 804958d:	89 c1                	mov    %eax,%ecx
 804958f:	c1 e9 02             	shr    $0x2,%ecx
 8049592:	f3 a5                	rep movsl %ds:(%esi),%es:(%edi)
 8049594:	ba 00 00 00 00       	mov    $0x0,%edx
 8049599:	a8 02                	test   $0x2,%al
 804959b:	74 0b                	je     80495a8 <read_line+0x104>
 804959d:	0f b7 16             	movzwl (%esi),%edx
 80495a0:	66 89 17             	mov    %dx,(%edi)
 80495a3:	ba 02 00 00 00       	mov    $0x2,%edx
 80495a8:	a8 01                	test   $0x1,%al
 80495aa:	74 07                	je     80495b3 <read_line+0x10f>
 80495ac:	0f b6 04 16          	movzbl (%esi,%edx,1),%eax
 80495b0:	88 04 17             	mov    %al,(%edi,%edx,1)
 80495b3:	e8 5d fe ff ff       	call   8049415 <explode_bomb>
 80495b8:	8d 04 92             	lea    (%edx,%edx,4),%eax
 80495bb:	c1 e0 04             	shl    $0x4,%eax
 80495be:	c6 84 01 ff d7 04 08 	movb   $0x0,0x804d7ff(%ecx,%eax,1)
 80495c5:	00 
 80495c6:	83 c2 01             	add    $0x1,%edx
 80495c9:	89 15 e8 d7 04 08    	mov    %edx,0x804d7e8
 80495cf:	89 d8                	mov    %ebx,%eax
 80495d1:	83 c4 10             	add    $0x10,%esp
 80495d4:	5b                   	pop    %ebx
 80495d5:	5e                   	pop    %esi
 80495d6:	5f                   	pop    %edi
 80495d7:	c3                   	ret    

080495d8 <phase_defused>:
 80495d8:	83 ec 1c             	sub    $0x1c,%esp
 80495db:	c7 04 24 01 00 00 00 	movl   $0x1,(%esp)
 80495e2:	e8 5a fd ff ff       	call   8049341 <send_msg>
 80495e7:	83 3d e8 d7 04 08 09 	cmpl   $0x9,0x804d7e8
 80495ee:	75 18                	jne    8049608 <phase_defused+0x30>
 80495f0:	c7 04 24 b0 a5 04 08 	movl   $0x804a5b0,(%esp)
 80495f7:	e8 14 f2 ff ff       	call   8048810 <puts@plt>
 80495fc:	c7 04 24 dc a5 04 08 	movl   $0x804a5dc,(%esp)
 8049603:	e8 08 f2 ff ff       	call   8048810 <puts@plt>
 8049608:	83 c4 1c             	add    $0x1c,%esp
 804960b:	c3                   	ret    
 804960c:	66 90                	xchg   %ax,%ax
 804960e:	66 90                	xchg   %ax,%ax

08049610 <sigalrm_handler>:
 8049610:	83 ec 1c             	sub    $0x1c,%esp
 8049613:	c7 44 24 08 00 00 00 	movl   $0x0,0x8(%esp)
 804961a:	00 
 804961b:	c7 44 24 04 a8 aa 04 	movl   $0x804aaa8,0x4(%esp)
 8049622:	08 
 8049623:	a1 c0 d7 04 08       	mov    0x804d7c0,%eax
 8049628:	89 04 24             	mov    %eax,(%esp)
 804962b:	e8 10 f2 ff ff       	call   8048840 <fprintf@plt>
 8049630:	c7 04 24 01 00 00 00 	movl   $0x1,(%esp)
 8049637:	e8 e4 f1 ff ff       	call   8048820 <exit@plt>

0804963c <rio_readlineb>:
 804963c:	55                   	push   %ebp
 804963d:	57                   	push   %edi
 804963e:	56                   	push   %esi
 804963f:	53                   	push   %ebx
 8049640:	83 ec 3c             	sub    $0x3c,%esp
 8049643:	89 d5                	mov    %edx,%ebp
 8049645:	83 f9 01             	cmp    $0x1,%ecx
 8049648:	0f 86 c6 00 00 00    	jbe    8049714 <rio_readlineb+0xd8>
 804964e:	89 c3                	mov    %eax,%ebx
 8049650:	89 4c 24 1c          	mov    %ecx,0x1c(%esp)
 8049654:	c7 44 24 10 01 00 00 	movl   $0x1,0x10(%esp)
 804965b:	00 
 804965c:	8d 78 0c             	lea    0xc(%eax),%edi
 804965f:	eb 34                	jmp    8049695 <rio_readlineb+0x59>
 8049661:	c7 44 24 08 00 20 00 	movl   $0x2000,0x8(%esp)
 8049668:	00 
 8049669:	89 7c 24 04          	mov    %edi,0x4(%esp)
 804966d:	8b 03                	mov    (%ebx),%eax
 804966f:	89 04 24             	mov    %eax,(%esp)
 8049672:	e8 c9 f0 ff ff       	call   8048740 <read@plt>
 8049677:	89 43 04             	mov    %eax,0x4(%ebx)
 804967a:	85 c0                	test   %eax,%eax
 804967c:	79 0f                	jns    804968d <rio_readlineb+0x51>
 804967e:	e8 0d f2 ff ff       	call   8048890 <__errno_location@plt>
 8049683:	83 38 04             	cmpl   $0x4,(%eax)
 8049686:	74 0d                	je     8049695 <rio_readlineb+0x59>
 8049688:	e9 99 00 00 00       	jmp    8049726 <rio_readlineb+0xea>
 804968d:	85 c0                	test   %eax,%eax
 804968f:	90                   	nop
 8049690:	74 66                	je     80496f8 <rio_readlineb+0xbc>
 8049692:	89 7b 08             	mov    %edi,0x8(%ebx)
 8049695:	8b 73 04             	mov    0x4(%ebx),%esi
 8049698:	85 f6                	test   %esi,%esi
 804969a:	7e c5                	jle    8049661 <rio_readlineb+0x25>
 804969c:	85 f6                	test   %esi,%esi
 804969e:	0f 95 c0             	setne  %al
 80496a1:	0f b6 c0             	movzbl %al,%eax
 80496a4:	89 44 24 14          	mov    %eax,0x14(%esp)
 80496a8:	8b 4b 08             	mov    0x8(%ebx),%ecx
 80496ab:	89 44 24 08          	mov    %eax,0x8(%esp)
 80496af:	89 4c 24 18          	mov    %ecx,0x18(%esp)
 80496b3:	89 4c 24 04          	mov    %ecx,0x4(%esp)
 80496b7:	8d 54 24 2f          	lea    0x2f(%esp),%edx
 80496bb:	89 14 24             	mov    %edx,(%esp)
 80496be:	e8 ad f0 ff ff       	call   8048770 <memcpy@plt>
 80496c3:	8b 4c 24 18          	mov    0x18(%esp),%ecx
 80496c7:	8b 54 24 14          	mov    0x14(%esp),%edx
 80496cb:	01 d1                	add    %edx,%ecx
 80496cd:	89 4b 08             	mov    %ecx,0x8(%ebx)
 80496d0:	29 d6                	sub    %edx,%esi
 80496d2:	89 73 04             	mov    %esi,0x4(%ebx)
 80496d5:	83 fa 01             	cmp    $0x1,%edx
 80496d8:	75 11                	jne    80496eb <rio_readlineb+0xaf>
 80496da:	83 c5 01             	add    $0x1,%ebp
 80496dd:	0f b6 44 24 2f       	movzbl 0x2f(%esp),%eax
 80496e2:	88 45 ff             	mov    %al,-0x1(%ebp)
 80496e5:	3c 0a                	cmp    $0xa,%al
 80496e7:	75 1a                	jne    8049703 <rio_readlineb+0xc7>
 80496e9:	eb 31                	jmp    804971c <rio_readlineb+0xe0>
 80496eb:	83 7c 24 14 00       	cmpl   $0x0,0x14(%esp)
 80496f0:	75 3b                	jne    804972d <rio_readlineb+0xf1>
 80496f2:	8b 44 24 10          	mov    0x10(%esp),%eax
 80496f6:	eb 04                	jmp    80496fc <rio_readlineb+0xc0>
 80496f8:	8b 44 24 10          	mov    0x10(%esp),%eax
 80496fc:	83 f8 01             	cmp    $0x1,%eax
 80496ff:	75 1b                	jne    804971c <rio_readlineb+0xe0>
 8049701:	eb 31                	jmp    8049734 <rio_readlineb+0xf8>
 8049703:	83 44 24 10 01       	addl   $0x1,0x10(%esp)
 8049708:	8b 44 24 1c          	mov    0x1c(%esp),%eax
 804970c:	39 44 24 10          	cmp    %eax,0x10(%esp)
 8049710:	74 0a                	je     804971c <rio_readlineb+0xe0>
 8049712:	eb 81                	jmp    8049695 <rio_readlineb+0x59>
 8049714:	c7 44 24 10 01 00 00 	movl   $0x1,0x10(%esp)
 804971b:	00 
 804971c:	c6 45 00 00          	movb   $0x0,0x0(%ebp)
 8049720:	8b 44 24 10          	mov    0x10(%esp),%eax
 8049724:	eb 13                	jmp    8049739 <rio_readlineb+0xfd>
 8049726:	b8 ff ff ff ff       	mov    $0xffffffff,%eax
 804972b:	eb 0c                	jmp    8049739 <rio_readlineb+0xfd>
 804972d:	b8 ff ff ff ff       	mov    $0xffffffff,%eax
 8049732:	eb 05                	jmp    8049739 <rio_readlineb+0xfd>
 8049734:	b8 00 00 00 00       	mov    $0x0,%eax
 8049739:	83 c4 3c             	add    $0x3c,%esp
 804973c:	5b                   	pop    %ebx
 804973d:	5e                   	pop    %esi
 804973e:	5f                   	pop    %edi
 804973f:	5d                   	pop    %ebp
 8049740:	c3                   	ret    

08049741 <submitr>:
 8049741:	55                   	push   %ebp
 8049742:	57                   	push   %edi
 8049743:	56                   	push   %esi
 8049744:	53                   	push   %ebx
 8049745:	81 ec 5c a0 00 00    	sub    $0xa05c,%esp
 804974b:	8b 9c 24 84 a0 00 00 	mov    0xa084(%esp),%ebx
 8049752:	c7 84 24 30 20 00 00 	movl   $0x0,0x2030(%esp)
 8049759:	00 00 00 00 
 804975d:	c7 44 24 08 00 00 00 	movl   $0x0,0x8(%esp)
 8049764:	00 
 8049765:	c7 44 24 04 01 00 00 	movl   $0x1,0x4(%esp)
 804976c:	00 
 804976d:	c7 04 24 02 00 00 00 	movl   $0x2,(%esp)
 8049774:	e8 37 f1 ff ff       	call   80488b0 <socket@plt>
 8049779:	89 c5                	mov    %eax,%ebp
 804977b:	85 c0                	test   %eax,%eax
 804977d:	79 55                	jns    80497d4 <submitr+0x93>
 804977f:	8b 84 24 88 a0 00 00 	mov    0xa088(%esp),%eax
 8049786:	c7 00 45 72 72 6f    	movl   $0x6f727245,(%eax)
 804978c:	c7 40 04 72 3a 20 43 	movl   $0x43203a72,0x4(%eax)
 8049793:	c7 40 08 6c 69 65 6e 	movl   $0x6e65696c,0x8(%eax)
 804979a:	c7 40 0c 74 20 75 6e 	movl   $0x6e752074,0xc(%eax)
 80497a1:	c7 40 10 61 62 6c 65 	movl   $0x656c6261,0x10(%eax)
 80497a8:	c7 40 14 20 74 6f 20 	movl   $0x206f7420,0x14(%eax)
 80497af:	c7 40 18 63 72 65 61 	movl   $0x61657263,0x18(%eax)
 80497b6:	c7 40 1c 74 65 20 73 	movl   $0x73206574,0x1c(%eax)
 80497bd:	c7 40 20 6f 63 6b 65 	movl   $0x656b636f,0x20(%eax)
 80497c4:	66 c7 40 24 74 00    	movw   $0x74,0x24(%eax)
 80497ca:	b8 ff ff ff ff       	mov    $0xffffffff,%eax
 80497cf:	e9 54 07 00 00       	jmp    8049f28 <submitr+0x7e7>
 80497d4:	8b 84 24 70 a0 00 00 	mov    0xa070(%esp),%eax
 80497db:	89 04 24             	mov    %eax,(%esp)
 80497de:	e8 dd f0 ff ff       	call   80488c0 <gethostbyname@plt>
 80497e3:	85 c0                	test   %eax,%eax
 80497e5:	75 6f                	jne    8049856 <submitr+0x115>
 80497e7:	8b 84 24 88 a0 00 00 	mov    0xa088(%esp),%eax
 80497ee:	c7 00 45 72 72 6f    	movl   $0x6f727245,(%eax)
 80497f4:	c7 40 04 72 3a 20 44 	movl   $0x44203a72,0x4(%eax)
 80497fb:	c7 40 08 4e 53 20 69 	movl   $0x6920534e,0x8(%eax)
 8049802:	c7 40 0c 73 20 75 6e 	movl   $0x6e752073,0xc(%eax)
 8049809:	c7 40 10 61 62 6c 65 	movl   $0x656c6261,0x10(%eax)
 8049810:	c7 40 14 20 74 6f 20 	movl   $0x206f7420,0x14(%eax)
 8049817:	c7 40 18 72 65 73 6f 	movl   $0x6f736572,0x18(%eax)
 804981e:	c7 40 1c 6c 76 65 20 	movl   $0x2065766c,0x1c(%eax)
 8049825:	c7 40 20 73 65 72 76 	movl   $0x76726573,0x20(%eax)
 804982c:	c7 40 24 65 72 20 61 	movl   $0x61207265,0x24(%eax)
 8049833:	c7 40 28 64 64 72 65 	movl   $0x65726464,0x28(%eax)
 804983a:	66 c7 40 2c 73 73    	movw   $0x7373,0x2c(%eax)
 8049840:	c6 40 2e 00          	movb   $0x0,0x2e(%eax)
 8049844:	89 2c 24             	mov    %ebp,(%esp)
 8049847:	e8 a4 f0 ff ff       	call   80488f0 <close@plt>
 804984c:	b8 ff ff ff ff       	mov    $0xffffffff,%eax
 8049851:	e9 d2 06 00 00       	jmp    8049f28 <submitr+0x7e7>
 8049856:	8d b4 24 40 a0 00 00 	lea    0xa040(%esp),%esi
 804985d:	c7 84 24 40 a0 00 00 	movl   $0x0,0xa040(%esp)
 8049864:	00 00 00 00 
 8049868:	c7 84 24 44 a0 00 00 	movl   $0x0,0xa044(%esp)
 804986f:	00 00 00 00 
 8049873:	c7 84 24 48 a0 00 00 	movl   $0x0,0xa048(%esp)
 804987a:	00 00 00 00 
 804987e:	c7 84 24 4c a0 00 00 	movl   $0x0,0xa04c(%esp)
 8049885:	00 00 00 00 
 8049889:	66 c7 84 24 40 a0 00 	movw   $0x2,0xa040(%esp)
 8049890:	00 02 00 
 8049893:	8b 50 0c             	mov    0xc(%eax),%edx
 8049896:	89 54 24 08          	mov    %edx,0x8(%esp)
 804989a:	8d 94 24 44 a0 00 00 	lea    0xa044(%esp),%edx
 80498a1:	89 54 24 04          	mov    %edx,0x4(%esp)
 80498a5:	8b 40 10             	mov    0x10(%eax),%eax
 80498a8:	8b 00                	mov    (%eax),%eax
 80498aa:	89 04 24             	mov    %eax,(%esp)
 80498ad:	e8 0e ef ff ff       	call   80487c0 <bcopy@plt>
 80498b2:	0f b7 84 24 74 a0 00 	movzwl 0xa074(%esp),%eax
 80498b9:	00 
 80498ba:	66 c1 c8 08          	ror    $0x8,%ax
 80498be:	66 89 84 24 42 a0 00 	mov    %ax,0xa042(%esp)
 80498c5:	00 
 80498c6:	c7 44 24 08 10 00 00 	movl   $0x10,0x8(%esp)
 80498cd:	00 
 80498ce:	89 74 24 04          	mov    %esi,0x4(%esp)
 80498d2:	89 2c 24             	mov    %ebp,(%esp)
 80498d5:	e8 06 f0 ff ff       	call   80488e0 <connect@plt>
 80498da:	85 c0                	test   %eax,%eax
 80498dc:	79 61                	jns    804993f <submitr+0x1fe>
 80498de:	8b 84 24 88 a0 00 00 	mov    0xa088(%esp),%eax
 80498e5:	c7 00 45 72 72 6f    	movl   $0x6f727245,(%eax)
 80498eb:	c7 40 04 72 3a 20 55 	movl   $0x55203a72,0x4(%eax)
 80498f2:	c7 40 08 6e 61 62 6c 	movl   $0x6c62616e,0x8(%eax)
 80498f9:	c7 40 0c 65 20 74 6f 	movl   $0x6f742065,0xc(%eax)
 8049900:	c7 40 10 20 63 6f 6e 	movl   $0x6e6f6320,0x10(%eax)
 8049907:	c7 40 14 6e 65 63 74 	movl   $0x7463656e,0x14(%eax)
 804990e:	c7 40 18 20 74 6f 20 	movl   $0x206f7420,0x18(%eax)
 8049915:	c7 40 1c 74 68 65 20 	movl   $0x20656874,0x1c(%eax)
 804991c:	c7 40 20 73 65 72 76 	movl   $0x76726573,0x20(%eax)
 8049923:	66 c7 40 24 65 72    	movw   $0x7265,0x24(%eax)
 8049929:	c6 40 26 00          	movb   $0x0,0x26(%eax)
 804992d:	89 2c 24             	mov    %ebp,(%esp)
 8049930:	e8 bb ef ff ff       	call   80488f0 <close@plt>
 8049935:	b8 ff ff ff ff       	mov    $0xffffffff,%eax
 804993a:	e9 e9 05 00 00       	jmp    8049f28 <submitr+0x7e7>
 804993f:	ba ff ff ff ff       	mov    $0xffffffff,%edx
 8049944:	89 df                	mov    %ebx,%edi
 8049946:	b8 00 00 00 00       	mov    $0x0,%eax
 804994b:	89 d1                	mov    %edx,%ecx
 804994d:	f2 ae                	repnz scas %es:(%edi),%al
 804994f:	f7 d1                	not    %ecx
 8049951:	89 ce                	mov    %ecx,%esi
 8049953:	8b bc 24 78 a0 00 00 	mov    0xa078(%esp),%edi
 804995a:	89 d1                	mov    %edx,%ecx
 804995c:	f2 ae                	repnz scas %es:(%edi),%al
 804995e:	89 4c 24 18          	mov    %ecx,0x18(%esp)
 8049962:	8b bc 24 7c a0 00 00 	mov    0xa07c(%esp),%edi
 8049969:	89 d1                	mov    %edx,%ecx
 804996b:	f2 ae                	repnz scas %es:(%edi),%al
 804996d:	f7 d1                	not    %ecx
 804996f:	89 4c 24 1c          	mov    %ecx,0x1c(%esp)
 8049973:	8b bc 24 80 a0 00 00 	mov    0xa080(%esp),%edi
 804997a:	89 d1                	mov    %edx,%ecx
 804997c:	f2 ae                	repnz scas %es:(%edi),%al
 804997e:	8b 44 24 1c          	mov    0x1c(%esp),%eax
 8049982:	2b 44 24 18          	sub    0x18(%esp),%eax
 8049986:	29 c8                	sub    %ecx,%eax
 8049988:	89 c2                	mov    %eax,%edx
 804998a:	8d 44 76 fd          	lea    -0x3(%esi,%esi,2),%eax
 804998e:	8d 44 02 7b          	lea    0x7b(%edx,%eax,1),%eax
 8049992:	3d 00 20 00 00       	cmp    $0x2000,%eax
 8049997:	76 7a                	jbe    8049a13 <submitr+0x2d2>
 8049999:	8b 84 24 88 a0 00 00 	mov    0xa088(%esp),%eax
 80499a0:	c7 00 45 72 72 6f    	movl   $0x6f727245,(%eax)
 80499a6:	c7 40 04 72 3a 20 52 	movl   $0x52203a72,0x4(%eax)
 80499ad:	c7 40 08 65 73 75 6c 	movl   $0x6c757365,0x8(%eax)
 80499b4:	c7 40 0c 74 20 73 74 	movl   $0x74732074,0xc(%eax)
 80499bb:	c7 40 10 72 69 6e 67 	movl   $0x676e6972,0x10(%eax)
 80499c2:	c7 40 14 20 74 6f 6f 	movl   $0x6f6f7420,0x14(%eax)
 80499c9:	c7 40 18 20 6c 61 72 	movl   $0x72616c20,0x18(%eax)
 80499d0:	c7 40 1c 67 65 2e 20 	movl   $0x202e6567,0x1c(%eax)
 80499d7:	c7 40 20 49 6e 63 72 	movl   $0x72636e49,0x20(%eax)
 80499de:	c7 40 24 65 61 73 65 	movl   $0x65736165,0x24(%eax)
 80499e5:	c7 40 28 20 53 55 42 	movl   $0x42555320,0x28(%eax)
 80499ec:	c7 40 2c 4d 49 54 52 	movl   $0x5254494d,0x2c(%eax)
 80499f3:	c7 40 30 5f 4d 41 58 	movl   $0x58414d5f,0x30(%eax)
 80499fa:	c7 40 34 42 55 46 00 	movl   $0x465542,0x34(%eax)
 8049a01:	89 2c 24             	mov    %ebp,(%esp)
 8049a04:	e8 e7 ee ff ff       	call   80488f0 <close@plt>
 8049a09:	b8 ff ff ff ff       	mov    $0xffffffff,%eax
 8049a0e:	e9 15 05 00 00       	jmp    8049f28 <submitr+0x7e7>
 8049a13:	8d 94 24 34 40 00 00 	lea    0x4034(%esp),%edx
 8049a1a:	b9 00 08 00 00       	mov    $0x800,%ecx
 8049a1f:	b8 00 00 00 00       	mov    $0x0,%eax
 8049a24:	89 d7                	mov    %edx,%edi
 8049a26:	f3 ab                	rep stos %eax,%es:(%edi)
 8049a28:	89 df                	mov    %ebx,%edi
 8049a2a:	b9 ff ff ff ff       	mov    $0xffffffff,%ecx
 8049a2f:	f2 ae                	repnz scas %es:(%edi),%al
 8049a31:	f7 d1                	not    %ecx
 8049a33:	83 e9 01             	sub    $0x1,%ecx
 8049a36:	89 ce                	mov    %ecx,%esi
 8049a38:	0f 84 00 04 00 00    	je     8049e3e <submitr+0x6fd>
 8049a3e:	89 d7                	mov    %edx,%edi
 8049a40:	0f b6 03             	movzbl (%ebx),%eax
 8049a43:	3c 2a                	cmp    $0x2a,%al
 8049a45:	74 21                	je     8049a68 <submitr+0x327>
 8049a47:	8d 50 d3             	lea    -0x2d(%eax),%edx
 8049a4a:	80 fa 01             	cmp    $0x1,%dl
 8049a4d:	76 19                	jbe    8049a68 <submitr+0x327>
 8049a4f:	3c 5f                	cmp    $0x5f,%al
 8049a51:	74 15                	je     8049a68 <submitr+0x327>
 8049a53:	8d 50 d0             	lea    -0x30(%eax),%edx
 8049a56:	80 fa 09             	cmp    $0x9,%dl
 8049a59:	76 0d                	jbe    8049a68 <submitr+0x327>
 8049a5b:	89 c2                	mov    %eax,%edx
 8049a5d:	83 e2 df             	and    $0xffffffdf,%edx
 8049a60:	83 ea 41             	sub    $0x41,%edx
 8049a63:	80 fa 19             	cmp    $0x19,%dl
 8049a66:	77 07                	ja     8049a6f <submitr+0x32e>
 8049a68:	8d 57 01             	lea    0x1(%edi),%edx
 8049a6b:	88 07                	mov    %al,(%edi)
 8049a6d:	eb 51                	jmp    8049ac0 <submitr+0x37f>
 8049a6f:	3c 20                	cmp    $0x20,%al
 8049a71:	75 08                	jne    8049a7b <submitr+0x33a>
 8049a73:	8d 57 01             	lea    0x1(%edi),%edx
 8049a76:	c6 07 2b             	movb   $0x2b,(%edi)
 8049a79:	eb 45                	jmp    8049ac0 <submitr+0x37f>
 8049a7b:	8d 50 e0             	lea    -0x20(%eax),%edx
 8049a7e:	80 fa 5f             	cmp    $0x5f,%dl
 8049a81:	76 08                	jbe    8049a8b <submitr+0x34a>
 8049a83:	3c 09                	cmp    $0x9,%al
 8049a85:	0f 85 1d 04 00 00    	jne    8049ea8 <submitr+0x767>
 8049a8b:	0f b6 c0             	movzbl %al,%eax
 8049a8e:	89 44 24 08          	mov    %eax,0x8(%esp)
 8049a92:	c7 44 24 04 b4 ab 04 	movl   $0x804abb4,0x4(%esp)
 8049a99:	08 
 8049a9a:	8d 44 24 28          	lea    0x28(%esp),%eax
 8049a9e:	89 04 24             	mov    %eax,(%esp)
 8049aa1:	e8 fa ed ff ff       	call   80488a0 <sprintf@plt>
 8049aa6:	0f b6 44 24 28       	movzbl 0x28(%esp),%eax
 8049aab:	88 07                	mov    %al,(%edi)
 8049aad:	0f b6 44 24 29       	movzbl 0x29(%esp),%eax
 8049ab2:	88 47 01             	mov    %al,0x1(%edi)
 8049ab5:	8d 57 03             	lea    0x3(%edi),%edx
 8049ab8:	0f b6 44 24 2a       	movzbl 0x2a(%esp),%eax
 8049abd:	88 47 02             	mov    %al,0x2(%edi)
 8049ac0:	83 c3 01             	add    $0x1,%ebx
 8049ac3:	83 ee 01             	sub    $0x1,%esi
 8049ac6:	0f 84 72 03 00 00    	je     8049e3e <submitr+0x6fd>
 8049acc:	89 d7                	mov    %edx,%edi
 8049ace:	e9 6d ff ff ff       	jmp    8049a40 <submitr+0x2ff>
 8049ad3:	89 5c 24 08          	mov    %ebx,0x8(%esp)
 8049ad7:	89 74 24 04          	mov    %esi,0x4(%esp)
 8049adb:	89 2c 24             	mov    %ebp,(%esp)
 8049ade:	e8 6d ed ff ff       	call   8048850 <write@plt>
 8049ae3:	85 c0                	test   %eax,%eax
 8049ae5:	7f 10                	jg     8049af7 <submitr+0x3b6>
 8049ae7:	e8 a4 ed ff ff       	call   8048890 <__errno_location@plt>
 8049aec:	83 38 04             	cmpl   $0x4,(%eax)
 8049aef:	90                   	nop
 8049af0:	75 0f                	jne    8049b01 <submitr+0x3c0>
 8049af2:	b8 00 00 00 00       	mov    $0x0,%eax
 8049af7:	01 c6                	add    %eax,%esi
 8049af9:	29 c3                	sub    %eax,%ebx
 8049afb:	75 d6                	jne    8049ad3 <submitr+0x392>
 8049afd:	85 ff                	test   %edi,%edi
 8049aff:	79 65                	jns    8049b66 <submitr+0x425>
 8049b01:	8b 84 24 88 a0 00 00 	mov    0xa088(%esp),%eax
 8049b08:	c7 00 45 72 72 6f    	movl   $0x6f727245,(%eax)
 8049b0e:	c7 40 04 72 3a 20 43 	movl   $0x43203a72,0x4(%eax)
 8049b15:	c7 40 08 6c 69 65 6e 	movl   $0x6e65696c,0x8(%eax)
 8049b1c:	c7 40 0c 74 20 75 6e 	movl   $0x6e752074,0xc(%eax)
 8049b23:	c7 40 10 61 62 6c 65 	movl   $0x656c6261,0x10(%eax)
 8049b2a:	c7 40 14 20 74 6f 20 	movl   $0x206f7420,0x14(%eax)
 8049b31:	c7 40 18 77 72 69 74 	movl   $0x74697277,0x18(%eax)
 8049b38:	c7 40 1c 65 20 74 6f 	movl   $0x6f742065,0x1c(%eax)
 8049b3f:	c7 40 20 20 74 68 65 	movl   $0x65687420,0x20(%eax)
 8049b46:	c7 40 24 20 73 65 72 	movl   $0x72657320,0x24(%eax)
 8049b4d:	c7 40 28 76 65 72 00 	movl   $0x726576,0x28(%eax)
 8049b54:	89 2c 24             	mov    %ebp,(%esp)
 8049b57:	e8 94 ed ff ff       	call   80488f0 <close@plt>
 8049b5c:	b8 ff ff ff ff       	mov    $0xffffffff,%eax
 8049b61:	e9 c2 03 00 00       	jmp    8049f28 <submitr+0x7e7>
 8049b66:	89 ac 24 34 80 00 00 	mov    %ebp,0x8034(%esp)
 8049b6d:	c7 84 24 38 80 00 00 	movl   $0x0,0x8038(%esp)
 8049b74:	00 00 00 00 
 8049b78:	8d 84 24 40 80 00 00 	lea    0x8040(%esp),%eax
 8049b7f:	89 84 24 3c 80 00 00 	mov    %eax,0x803c(%esp)
 8049b86:	b9 00 20 00 00       	mov    $0x2000,%ecx
 8049b8b:	8d 94 24 34 60 00 00 	lea    0x6034(%esp),%edx
 8049b92:	8d 84 24 34 80 00 00 	lea    0x8034(%esp),%eax
 8049b99:	e8 9e fa ff ff       	call   804963c <rio_readlineb>
 8049b9e:	85 c0                	test   %eax,%eax
 8049ba0:	7f 79                	jg     8049c1b <submitr+0x4da>
 8049ba2:	8b 84 24 88 a0 00 00 	mov    0xa088(%esp),%eax
 8049ba9:	c7 00 45 72 72 6f    	movl   $0x6f727245,(%eax)
 8049baf:	c7 40 04 72 3a 20 43 	movl   $0x43203a72,0x4(%eax)
 8049bb6:	c7 40 08 6c 69 65 6e 	movl   $0x6e65696c,0x8(%eax)
 8049bbd:	c7 40 0c 74 20 75 6e 	movl   $0x6e752074,0xc(%eax)
 8049bc4:	c7 40 10 61 62 6c 65 	movl   $0x656c6261,0x10(%eax)
 8049bcb:	c7 40 14 20 74 6f 20 	movl   $0x206f7420,0x14(%eax)
 8049bd2:	c7 40 18 72 65 61 64 	movl   $0x64616572,0x18(%eax)
 8049bd9:	c7 40 1c 20 66 69 72 	movl   $0x72696620,0x1c(%eax)
 8049be0:	c7 40 20 73 74 20 68 	movl   $0x68207473,0x20(%eax)
 8049be7:	c7 40 24 65 61 64 65 	movl   $0x65646165,0x24(%eax)
 8049bee:	c7 40 28 72 20 66 72 	movl   $0x72662072,0x28(%eax)
 8049bf5:	c7 40 2c 6f 6d 20 73 	movl   $0x73206d6f,0x2c(%eax)
 8049bfc:	c7 40 30 65 72 76 65 	movl   $0x65767265,0x30(%eax)
 8049c03:	66 c7 40 34 72 00    	movw   $0x72,0x34(%eax)
 8049c09:	89 2c 24             	mov    %ebp,(%esp)
 8049c0c:	e8 df ec ff ff       	call   80488f0 <close@plt>
 8049c11:	b8 ff ff ff ff       	mov    $0xffffffff,%eax
 8049c16:	e9 0d 03 00 00       	jmp    8049f28 <submitr+0x7e7>
 8049c1b:	8d 44 24 30          	lea    0x30(%esp),%eax
 8049c1f:	89 44 24 10          	mov    %eax,0x10(%esp)
 8049c23:	8d 84 24 30 20 00 00 	lea    0x2030(%esp),%eax
 8049c2a:	89 44 24 0c          	mov    %eax,0xc(%esp)
 8049c2e:	8d 84 24 34 20 00 00 	lea    0x2034(%esp),%eax
 8049c35:	89 44 24 08          	mov    %eax,0x8(%esp)
 8049c39:	c7 44 24 04 bb ab 04 	movl   $0x804abbb,0x4(%esp)
 8049c40:	08 
 8049c41:	8d 84 24 34 60 00 00 	lea    0x6034(%esp),%eax
 8049c48:	89 04 24             	mov    %eax,(%esp)
 8049c4b:	e8 20 ec ff ff       	call   8048870 <__isoc99_sscanf@plt>
 8049c50:	8b 84 24 30 20 00 00 	mov    0x2030(%esp),%eax
 8049c57:	3d c8 00 00 00       	cmp    $0xc8,%eax
 8049c5c:	0f 84 c1 00 00 00    	je     8049d23 <submitr+0x5e2>
 8049c62:	8d 54 24 30          	lea    0x30(%esp),%edx
 8049c66:	89 54 24 0c          	mov    %edx,0xc(%esp)
 8049c6a:	89 44 24 08          	mov    %eax,0x8(%esp)
 8049c6e:	c7 44 24 04 cc aa 04 	movl   $0x804aacc,0x4(%esp)
 8049c75:	08 
 8049c76:	8b 84 24 88 a0 00 00 	mov    0xa088(%esp),%eax
 8049c7d:	89 04 24             	mov    %eax,(%esp)
 8049c80:	e8 1b ec ff ff       	call   80488a0 <sprintf@plt>
 8049c85:	89 2c 24             	mov    %ebp,(%esp)
 8049c88:	e8 63 ec ff ff       	call   80488f0 <close@plt>
 8049c8d:	b8 ff ff ff ff       	mov    $0xffffffff,%eax
 8049c92:	e9 91 02 00 00       	jmp    8049f28 <submitr+0x7e7>
 8049c97:	b9 00 20 00 00       	mov    $0x2000,%ecx
 8049c9c:	8d 94 24 34 60 00 00 	lea    0x6034(%esp),%edx
 8049ca3:	8d 84 24 34 80 00 00 	lea    0x8034(%esp),%eax
 8049caa:	e8 8d f9 ff ff       	call   804963c <rio_readlineb>
 8049caf:	85 c0                	test   %eax,%eax
 8049cb1:	7f 70                	jg     8049d23 <submitr+0x5e2>
 8049cb3:	8b 84 24 88 a0 00 00 	mov    0xa088(%esp),%eax
 8049cba:	c7 00 45 72 72 6f    	movl   $0x6f727245,(%eax)
 8049cc0:	c7 40 04 72 3a 20 43 	movl   $0x43203a72,0x4(%eax)
 8049cc7:	c7 40 08 6c 69 65 6e 	movl   $0x6e65696c,0x8(%eax)
 8049cce:	c7 40 0c 74 20 75 6e 	movl   $0x6e752074,0xc(%eax)
 8049cd5:	c7 40 10 61 62 6c 65 	movl   $0x656c6261,0x10(%eax)
 8049cdc:	c7 40 14 20 74 6f 20 	movl   $0x206f7420,0x14(%eax)
 8049ce3:	c7 40 18 72 65 61 64 	movl   $0x64616572,0x18(%eax)
 8049cea:	c7 40 1c 20 68 65 61 	movl   $0x61656820,0x1c(%eax)
 8049cf1:	c7 40 20 64 65 72 73 	movl   $0x73726564,0x20(%eax)
 8049cf8:	c7 40 24 20 66 72 6f 	movl   $0x6f726620,0x24(%eax)
 8049cff:	c7 40 28 6d 20 73 65 	movl   $0x6573206d,0x28(%eax)
 8049d06:	c7 40 2c 72 76 65 72 	movl   $0x72657672,0x2c(%eax)
 8049d0d:	c6 40 30 00          	movb   $0x0,0x30(%eax)
 8049d11:	89 2c 24             	mov    %ebp,(%esp)
 8049d14:	e8 d7 eb ff ff       	call   80488f0 <close@plt>
 8049d19:	b8 ff ff ff ff       	mov    $0xffffffff,%eax
 8049d1e:	e9 05 02 00 00       	jmp    8049f28 <submitr+0x7e7>
 8049d23:	80 bc 24 34 60 00 00 	cmpb   $0xd,0x6034(%esp)
 8049d2a:	0d 
 8049d2b:	0f 85 66 ff ff ff    	jne    8049c97 <submitr+0x556>
 8049d31:	80 bc 24 35 60 00 00 	cmpb   $0xa,0x6035(%esp)
 8049d38:	0a 
 8049d39:	0f 85 58 ff ff ff    	jne    8049c97 <submitr+0x556>
 8049d3f:	80 bc 24 36 60 00 00 	cmpb   $0x0,0x6036(%esp)
 8049d46:	00 
 8049d47:	0f 85 4a ff ff ff    	jne    8049c97 <submitr+0x556>
 8049d4d:	b9 00 20 00 00       	mov    $0x2000,%ecx
 8049d52:	8d 94 24 34 60 00 00 	lea    0x6034(%esp),%edx
 8049d59:	8d 84 24 34 80 00 00 	lea    0x8034(%esp),%eax
 8049d60:	e8 d7 f8 ff ff       	call   804963c <rio_readlineb>
 8049d65:	85 c0                	test   %eax,%eax
 8049d67:	7f 7a                	jg     8049de3 <submitr+0x6a2>
 8049d69:	8b 84 24 88 a0 00 00 	mov    0xa088(%esp),%eax
 8049d70:	c7 00 45 72 72 6f    	movl   $0x6f727245,(%eax)
 8049d76:	c7 40 04 72 3a 20 43 	movl   $0x43203a72,0x4(%eax)
 8049d7d:	c7 40 08 6c 69 65 6e 	movl   $0x6e65696c,0x8(%eax)
 8049d84:	c7 40 0c 74 20 75 6e 	movl   $0x6e752074,0xc(%eax)
 8049d8b:	c7 40 10 61 62 6c 65 	movl   $0x656c6261,0x10(%eax)
 8049d92:	c7 40 14 20 74 6f 20 	movl   $0x206f7420,0x14(%eax)
 8049d99:	c7 40 18 72 65 61 64 	movl   $0x64616572,0x18(%eax)
 8049da0:	c7 40 1c 20 73 74 61 	movl   $0x61747320,0x1c(%eax)
 8049da7:	c7 40 20 74 75 73 20 	movl   $0x20737574,0x20(%eax)
 8049dae:	c7 40 24 6d 65 73 73 	movl   $0x7373656d,0x24(%eax)
 8049db5:	c7 40 28 61 67 65 20 	movl   $0x20656761,0x28(%eax)
 8049dbc:	c7 40 2c 66 72 6f 6d 	movl   $0x6d6f7266,0x2c(%eax)
 8049dc3:	c7 40 30 20 73 65 72 	movl   $0x72657320,0x30(%eax)
 8049dca:	c7 40 34 76 65 72 00 	movl   $0x726576,0x34(%eax)
 8049dd1:	89 2c 24             	mov    %ebp,(%esp)
 8049dd4:	e8 17 eb ff ff       	call   80488f0 <close@plt>
 8049dd9:	b8 ff ff ff ff       	mov    $0xffffffff,%eax
 8049dde:	e9 45 01 00 00       	jmp    8049f28 <submitr+0x7e7>
 8049de3:	8d 84 24 34 60 00 00 	lea    0x6034(%esp),%eax
 8049dea:	89 44 24 04          	mov    %eax,0x4(%esp)
 8049dee:	8b 84 24 88 a0 00 00 	mov    0xa088(%esp),%eax
 8049df5:	89 04 24             	mov    %eax,(%esp)
 8049df8:	e8 d3 e9 ff ff       	call   80487d0 <strcpy@plt>
 8049dfd:	89 2c 24             	mov    %ebp,(%esp)
 8049e00:	e8 eb ea ff ff       	call   80488f0 <close@plt>
 8049e05:	8b 84 24 88 a0 00 00 	mov    0xa088(%esp),%eax
 8049e0c:	0f b6 00             	movzbl (%eax),%eax
 8049e0f:	83 e8 4f             	sub    $0x4f,%eax
 8049e12:	75 1b                	jne    8049e2f <submitr+0x6ee>
 8049e14:	8b 84 24 88 a0 00 00 	mov    0xa088(%esp),%eax
 8049e1b:	0f b6 40 01          	movzbl 0x1(%eax),%eax
 8049e1f:	83 e8 4b             	sub    $0x4b,%eax
 8049e22:	75 0b                	jne    8049e2f <submitr+0x6ee>
 8049e24:	8b 84 24 88 a0 00 00 	mov    0xa088(%esp),%eax
 8049e2b:	0f b6 40 02          	movzbl 0x2(%eax),%eax
 8049e2f:	85 c0                	test   %eax,%eax
 8049e31:	0f 95 c0             	setne  %al
 8049e34:	0f b6 c0             	movzbl %al,%eax
 8049e37:	f7 d8                	neg    %eax
 8049e39:	e9 ea 00 00 00       	jmp    8049f28 <submitr+0x7e7>
 8049e3e:	8d 84 24 34 40 00 00 	lea    0x4034(%esp),%eax
 8049e45:	89 44 24 14          	mov    %eax,0x14(%esp)
 8049e49:	8b 84 24 80 a0 00 00 	mov    0xa080(%esp),%eax
 8049e50:	89 44 24 10          	mov    %eax,0x10(%esp)
 8049e54:	8b 84 24 7c a0 00 00 	mov    0xa07c(%esp),%eax
 8049e5b:	89 44 24 0c          	mov    %eax,0xc(%esp)
 8049e5f:	8b 84 24 78 a0 00 00 	mov    0xa078(%esp),%eax
 8049e66:	89 44 24 08          	mov    %eax,0x8(%esp)
 8049e6a:	c7 44 24 04 fc aa 04 	movl   $0x804aafc,0x4(%esp)
 8049e71:	08 
 8049e72:	8d bc 24 34 60 00 00 	lea    0x6034(%esp),%edi
 8049e79:	89 3c 24             	mov    %edi,(%esp)
 8049e7c:	e8 1f ea ff ff       	call   80488a0 <sprintf@plt>
 8049e81:	b8 00 00 00 00       	mov    $0x0,%eax
 8049e86:	b9 ff ff ff ff       	mov    $0xffffffff,%ecx
 8049e8b:	f2 ae                	repnz scas %es:(%edi),%al
 8049e8d:	f7 d1                	not    %ecx
 8049e8f:	83 e9 01             	sub    $0x1,%ecx
 8049e92:	89 cf                	mov    %ecx,%edi
 8049e94:	0f 84 cc fc ff ff    	je     8049b66 <submitr+0x425>
 8049e9a:	89 cb                	mov    %ecx,%ebx
 8049e9c:	8d b4 24 34 60 00 00 	lea    0x6034(%esp),%esi
 8049ea3:	e9 2b fc ff ff       	jmp    8049ad3 <submitr+0x392>
 8049ea8:	8b bc 24 88 a0 00 00 	mov    0xa088(%esp),%edi
 8049eaf:	be 48 ab 04 08       	mov    $0x804ab48,%esi
 8049eb4:	b8 43 00 00 00       	mov    $0x43,%eax
 8049eb9:	f7 c7 01 00 00 00    	test   $0x1,%edi
 8049ebf:	74 1d                	je     8049ede <submitr+0x79d>
 8049ec1:	0f b6 05 48 ab 04 08 	movzbl 0x804ab48,%eax
 8049ec8:	88 07                	mov    %al,(%edi)
 8049eca:	8b 84 24 88 a0 00 00 	mov    0xa088(%esp),%eax
 8049ed1:	8d 78 01             	lea    0x1(%eax),%edi
 8049ed4:	be 49 ab 04 08       	mov    $0x804ab49,%esi
 8049ed9:	b8 42 00 00 00       	mov    $0x42,%eax
 8049ede:	f7 c7 02 00 00 00    	test   $0x2,%edi
 8049ee4:	74 0f                	je     8049ef5 <submitr+0x7b4>
 8049ee6:	0f b7 16             	movzwl (%esi),%edx
 8049ee9:	66 89 17             	mov    %dx,(%edi)
 8049eec:	83 c7 02             	add    $0x2,%edi
 8049eef:	83 c6 02             	add    $0x2,%esi
 8049ef2:	83 e8 02             	sub    $0x2,%eax
 8049ef5:	89 c1                	mov    %eax,%ecx
 8049ef7:	c1 e9 02             	shr    $0x2,%ecx
 8049efa:	f3 a5                	rep movsl %ds:(%esi),%es:(%edi)
 8049efc:	ba 00 00 00 00       	mov    $0x0,%edx
 8049f01:	a8 02                	test   $0x2,%al
 8049f03:	74 0b                	je     8049f10 <submitr+0x7cf>
 8049f05:	0f b7 16             	movzwl (%esi),%edx
 8049f08:	66 89 17             	mov    %dx,(%edi)
 8049f0b:	ba 02 00 00 00       	mov    $0x2,%edx
 8049f10:	a8 01                	test   $0x1,%al
 8049f12:	74 07                	je     8049f1b <submitr+0x7da>
 8049f14:	0f b6 04 16          	movzbl (%esi,%edx,1),%eax
 8049f18:	88 04 17             	mov    %al,(%edi,%edx,1)
 8049f1b:	89 2c 24             	mov    %ebp,(%esp)
 8049f1e:	e8 cd e9 ff ff       	call   80488f0 <close@plt>
 8049f23:	b8 ff ff ff ff       	mov    $0xffffffff,%eax
 8049f28:	81 c4 5c a0 00 00    	add    $0xa05c,%esp
 8049f2e:	5b                   	pop    %ebx
 8049f2f:	5e                   	pop    %esi
 8049f30:	5f                   	pop    %edi
 8049f31:	5d                   	pop    %ebp
 8049f32:	c3                   	ret    

08049f33 <init_timeout>:
 8049f33:	53                   	push   %ebx
 8049f34:	83 ec 18             	sub    $0x18,%esp
 8049f37:	8b 5c 24 20          	mov    0x20(%esp),%ebx
 8049f3b:	85 db                	test   %ebx,%ebx
 8049f3d:	74 26                	je     8049f65 <init_timeout+0x32>
 8049f3f:	c7 44 24 04 10 96 04 	movl   $0x8049610,0x4(%esp)
 8049f46:	08 
 8049f47:	c7 04 24 0e 00 00 00 	movl   $0xe,(%esp)
 8049f4e:	e8 3d e8 ff ff       	call   8048790 <signal@plt>
 8049f53:	85 db                	test   %ebx,%ebx
 8049f55:	b8 00 00 00 00       	mov    $0x0,%eax
 8049f5a:	0f 48 d8             	cmovs  %eax,%ebx
 8049f5d:	89 1c 24             	mov    %ebx,(%esp)
 8049f60:	e8 4b e8 ff ff       	call   80487b0 <alarm@plt>
 8049f65:	83 c4 18             	add    $0x18,%esp
 8049f68:	5b                   	pop    %ebx
 8049f69:	c3                   	ret    

08049f6a <init_driver>:
 8049f6a:	57                   	push   %edi
 8049f6b:	56                   	push   %esi
 8049f6c:	53                   	push   %ebx
 8049f6d:	83 ec 20             	sub    $0x20,%esp
 8049f70:	8b 74 24 30          	mov    0x30(%esp),%esi
 8049f74:	c7 44 24 04 01 00 00 	movl   $0x1,0x4(%esp)
 8049f7b:	00 
 8049f7c:	c7 04 24 0d 00 00 00 	movl   $0xd,(%esp)
 8049f83:	e8 08 e8 ff ff       	call   8048790 <signal@plt>
 8049f88:	c7 44 24 04 01 00 00 	movl   $0x1,0x4(%esp)
 8049f8f:	00 
 8049f90:	c7 04 24 1d 00 00 00 	movl   $0x1d,(%esp)
 8049f97:	e8 f4 e7 ff ff       	call   8048790 <signal@plt>
 8049f9c:	c7 44 24 04 01 00 00 	movl   $0x1,0x4(%esp)
 8049fa3:	00 
 8049fa4:	c7 04 24 1d 00 00 00 	movl   $0x1d,(%esp)
 8049fab:	e8 e0 e7 ff ff       	call   8048790 <signal@plt>
 8049fb0:	c7 44 24 08 00 00 00 	movl   $0x0,0x8(%esp)
 8049fb7:	00 
 8049fb8:	c7 44 24 04 01 00 00 	movl   $0x1,0x4(%esp)
 8049fbf:	00 
 8049fc0:	c7 04 24 02 00 00 00 	movl   $0x2,(%esp)
 8049fc7:	e8 e4 e8 ff ff       	call   80488b0 <socket@plt>
 8049fcc:	89 c3                	mov    %eax,%ebx
 8049fce:	85 c0                	test   %eax,%eax
 8049fd0:	79 4e                	jns    804a020 <init_driver+0xb6>
 8049fd2:	c7 06 45 72 72 6f    	movl   $0x6f727245,(%esi)
 8049fd8:	c7 46 04 72 3a 20 43 	movl   $0x43203a72,0x4(%esi)
 8049fdf:	c7 46 08 6c 69 65 6e 	movl   $0x6e65696c,0x8(%esi)
 8049fe6:	c7 46 0c 74 20 75 6e 	movl   $0x6e752074,0xc(%esi)
 8049fed:	c7 46 10 61 62 6c 65 	movl   $0x656c6261,0x10(%esi)
 8049ff4:	c7 46 14 20 74 6f 20 	movl   $0x206f7420,0x14(%esi)
 8049ffb:	c7 46 18 63 72 65 61 	movl   $0x61657263,0x18(%esi)
 804a002:	c7 46 1c 74 65 20 73 	movl   $0x73206574,0x1c(%esi)
 804a009:	c7 46 20 6f 63 6b 65 	movl   $0x656b636f,0x20(%esi)
 804a010:	66 c7 46 24 74 00    	movw   $0x74,0x24(%esi)
 804a016:	b8 ff ff ff ff       	mov    $0xffffffff,%eax
 804a01b:	e9 1b 01 00 00       	jmp    804a13b <init_driver+0x1d1>
 804a020:	c7 04 24 6f a8 04 08 	movl   $0x804a86f,(%esp)
 804a027:	e8 94 e8 ff ff       	call   80488c0 <gethostbyname@plt>
 804a02c:	85 c0                	test   %eax,%eax
 804a02e:	75 68                	jne    804a098 <init_driver+0x12e>
 804a030:	c7 06 45 72 72 6f    	movl   $0x6f727245,(%esi)
 804a036:	c7 46 04 72 3a 20 44 	movl   $0x44203a72,0x4(%esi)
 804a03d:	c7 46 08 4e 53 20 69 	movl   $0x6920534e,0x8(%esi)
 804a044:	c7 46 0c 73 20 75 6e 	movl   $0x6e752073,0xc(%esi)
 804a04b:	c7 46 10 61 62 6c 65 	movl   $0x656c6261,0x10(%esi)
 804a052:	c7 46 14 20 74 6f 20 	movl   $0x206f7420,0x14(%esi)
 804a059:	c7 46 18 72 65 73 6f 	movl   $0x6f736572,0x18(%esi)
 804a060:	c7 46 1c 6c 76 65 20 	movl   $0x2065766c,0x1c(%esi)
 804a067:	c7 46 20 73 65 72 76 	movl   $0x76726573,0x20(%esi)
 804a06e:	c7 46 24 65 72 20 61 	movl   $0x61207265,0x24(%esi)
 804a075:	c7 46 28 64 64 72 65 	movl   $0x65726464,0x28(%esi)
 804a07c:	66 c7 46 2c 73 73    	movw   $0x7373,0x2c(%esi)
 804a082:	c6 46 2e 00          	movb   $0x0,0x2e(%esi)
 804a086:	89 1c 24             	mov    %ebx,(%esp)
 804a089:	e8 62 e8 ff ff       	call   80488f0 <close@plt>
 804a08e:	b8 ff ff ff ff       	mov    $0xffffffff,%eax
 804a093:	e9 a3 00 00 00       	jmp    804a13b <init_driver+0x1d1>
 804a098:	8d 7c 24 10          	lea    0x10(%esp),%edi
 804a09c:	c7 44 24 10 00 00 00 	movl   $0x0,0x10(%esp)
 804a0a3:	00 
 804a0a4:	c7 44 24 14 00 00 00 	movl   $0x0,0x14(%esp)
 804a0ab:	00 
 804a0ac:	c7 44 24 18 00 00 00 	movl   $0x0,0x18(%esp)
 804a0b3:	00 
 804a0b4:	c7 44 24 1c 00 00 00 	movl   $0x0,0x1c(%esp)
 804a0bb:	00 
 804a0bc:	66 c7 44 24 10 02 00 	movw   $0x2,0x10(%esp)
 804a0c3:	8b 50 0c             	mov    0xc(%eax),%edx
 804a0c6:	89 54 24 08          	mov    %edx,0x8(%esp)
 804a0ca:	8d 54 24 14          	lea    0x14(%esp),%edx
 804a0ce:	89 54 24 04          	mov    %edx,0x4(%esp)
 804a0d2:	8b 40 10             	mov    0x10(%eax),%eax
 804a0d5:	8b 00                	mov    (%eax),%eax
 804a0d7:	89 04 24             	mov    %eax,(%esp)
 804a0da:	e8 e1 e6 ff ff       	call   80487c0 <bcopy@plt>
 804a0df:	66 c7 44 24 12 43 31 	movw   $0x3143,0x12(%esp)
 804a0e6:	c7 44 24 08 10 00 00 	movl   $0x10,0x8(%esp)
 804a0ed:	00 
 804a0ee:	89 7c 24 04          	mov    %edi,0x4(%esp)
 804a0f2:	89 1c 24             	mov    %ebx,(%esp)
 804a0f5:	e8 e6 e7 ff ff       	call   80488e0 <connect@plt>
 804a0fa:	85 c0                	test   %eax,%eax
 804a0fc:	79 27                	jns    804a125 <init_driver+0x1bb>
 804a0fe:	c7 44 24 08 6f a8 04 	movl   $0x804a86f,0x8(%esp)
 804a105:	08 
 804a106:	c7 44 24 04 8c ab 04 	movl   $0x804ab8c,0x4(%esp)
 804a10d:	08 
 804a10e:	89 34 24             	mov    %esi,(%esp)
 804a111:	e8 8a e7 ff ff       	call   80488a0 <sprintf@plt>
 804a116:	89 1c 24             	mov    %ebx,(%esp)
 804a119:	e8 d2 e7 ff ff       	call   80488f0 <close@plt>
 804a11e:	b8 ff ff ff ff       	mov    $0xffffffff,%eax
 804a123:	eb 16                	jmp    804a13b <init_driver+0x1d1>
 804a125:	89 1c 24             	mov    %ebx,(%esp)
 804a128:	e8 c3 e7 ff ff       	call   80488f0 <close@plt>
 804a12d:	66 c7 06 4f 4b       	movw   $0x4b4f,(%esi)
 804a132:	c6 46 02 00          	movb   $0x0,0x2(%esi)
 804a136:	b8 00 00 00 00       	mov    $0x0,%eax
 804a13b:	83 c4 20             	add    $0x20,%esp
 804a13e:	5b                   	pop    %ebx
 804a13f:	5e                   	pop    %esi
 804a140:	5f                   	pop    %edi
 804a141:	c3                   	ret    

0804a142 <driver_post>:
 804a142:	53                   	push   %ebx
 804a143:	83 ec 28             	sub    $0x28,%esp
 804a146:	8b 44 24 30          	mov    0x30(%esp),%eax
 804a14a:	8b 5c 24 3c          	mov    0x3c(%esp),%ebx
 804a14e:	83 7c 24 38 00       	cmpl   $0x0,0x38(%esp)
 804a153:	74 24                	je     804a179 <driver_post+0x37>
 804a155:	8b 44 24 34          	mov    0x34(%esp),%eax
 804a159:	89 44 24 04          	mov    %eax,0x4(%esp)
 804a15d:	c7 04 24 cc ab 04 08 	movl   $0x804abcc,(%esp)
 804a164:	e8 e7 e5 ff ff       	call   8048750 <printf@plt>
 804a169:	66 c7 03 4f 4b       	movw   $0x4b4f,(%ebx)
 804a16e:	c6 43 02 00          	movb   $0x0,0x2(%ebx)
 804a172:	b8 00 00 00 00       	mov    $0x0,%eax
 804a177:	eb 4d                	jmp    804a1c6 <driver_post+0x84>
 804a179:	85 c0                	test   %eax,%eax
 804a17b:	74 3b                	je     804a1b8 <driver_post+0x76>
 804a17d:	80 38 00             	cmpb   $0x0,(%eax)
 804a180:	74 36                	je     804a1b8 <driver_post+0x76>
 804a182:	89 5c 24 18          	mov    %ebx,0x18(%esp)
 804a186:	8b 54 24 34          	mov    0x34(%esp),%edx
 804a18a:	89 54 24 14          	mov    %edx,0x14(%esp)
 804a18e:	c7 44 24 10 e3 ab 04 	movl   $0x804abe3,0x10(%esp)
 804a195:	08 
 804a196:	89 44 24 0c          	mov    %eax,0xc(%esp)
 804a19a:	c7 44 24 08 ee ab 04 	movl   $0x804abee,0x8(%esp)
 804a1a1:	08 
 804a1a2:	c7 44 24 04 31 43 00 	movl   $0x4331,0x4(%esp)
 804a1a9:	00 
 804a1aa:	c7 04 24 6f a8 04 08 	movl   $0x804a86f,(%esp)
 804a1b1:	e8 8b f5 ff ff       	call   8049741 <submitr>
 804a1b6:	eb 0e                	jmp    804a1c6 <driver_post+0x84>
 804a1b8:	66 c7 03 4f 4b       	movw   $0x4b4f,(%ebx)
 804a1bd:	c6 43 02 00          	movb   $0x0,0x2(%ebx)
 804a1c1:	b8 00 00 00 00       	mov    $0x0,%eax
 804a1c6:	83 c4 28             	add    $0x28,%esp
 804a1c9:	5b                   	pop    %ebx
 804a1ca:	c3                   	ret    
 804a1cb:	66 90                	xchg   %ax,%ax
 804a1cd:	66 90                	xchg   %ax,%ax
 804a1cf:	90                   	nop

0804a1d0 <__libc_csu_init>:
 804a1d0:	55                   	push   %ebp
 804a1d1:	57                   	push   %edi
 804a1d2:	31 ff                	xor    %edi,%edi
 804a1d4:	56                   	push   %esi
 804a1d5:	53                   	push   %ebx
 804a1d6:	e8 75 e7 ff ff       	call   8048950 <__x86.get_pc_thunk.bx>
 804a1db:	81 c3 25 2e 00 00    	add    $0x2e25,%ebx
 804a1e1:	83 ec 1c             	sub    $0x1c,%esp
 804a1e4:	8b 6c 24 30          	mov    0x30(%esp),%ebp
 804a1e8:	8d b3 0c ff ff ff    	lea    -0xf4(%ebx),%esi
 804a1ee:	e8 0d e5 ff ff       	call   8048700 <_init>
 804a1f3:	8d 83 08 ff ff ff    	lea    -0xf8(%ebx),%eax
 804a1f9:	29 c6                	sub    %eax,%esi
 804a1fb:	c1 fe 02             	sar    $0x2,%esi
 804a1fe:	85 f6                	test   %esi,%esi
 804a200:	74 27                	je     804a229 <__libc_csu_init+0x59>
 804a202:	8d b6 00 00 00 00    	lea    0x0(%esi),%esi
 804a208:	8b 44 24 38          	mov    0x38(%esp),%eax
 804a20c:	89 2c 24             	mov    %ebp,(%esp)
 804a20f:	89 44 24 08          	mov    %eax,0x8(%esp)
 804a213:	8b 44 24 34          	mov    0x34(%esp),%eax
 804a217:	89 44 24 04          	mov    %eax,0x4(%esp)
 804a21b:	ff 94 bb 08 ff ff ff 	call   *-0xf8(%ebx,%edi,4)
 804a222:	83 c7 01             	add    $0x1,%edi
 804a225:	39 f7                	cmp    %esi,%edi
 804a227:	75 df                	jne    804a208 <__libc_csu_init+0x38>
 804a229:	83 c4 1c             	add    $0x1c,%esp
 804a22c:	5b                   	pop    %ebx
 804a22d:	5e                   	pop    %esi
 804a22e:	5f                   	pop    %edi
 804a22f:	5d                   	pop    %ebp
 804a230:	c3                   	ret    
 804a231:	eb 0d                	jmp    804a240 <__libc_csu_fini>
 804a233:	90                   	nop
 804a234:	90                   	nop
 804a235:	90                   	nop
 804a236:	90                   	nop
 804a237:	90                   	nop
 804a238:	90                   	nop
 804a239:	90                   	nop
 804a23a:	90                   	nop
 804a23b:	90                   	nop
 804a23c:	90                   	nop
 804a23d:	90                   	nop
 804a23e:	90                   	nop
 804a23f:	90                   	nop

0804a240 <__libc_csu_fini>:
 804a240:	f3 c3                	repz ret 

Disassembly of section .fini:

0804a244 <_fini>:
 804a244:	53                   	push   %ebx
 804a245:	83 ec 08             	sub    $0x8,%esp
 804a248:	e8 03 e7 ff ff       	call   8048950 <__x86.get_pc_thunk.bx>
 804a24d:	81 c3 b3 2d 00 00    	add    $0x2db3,%ebx
 804a253:	83 c4 08             	add    $0x8,%esp
 804a256:	5b                   	pop    %ebx
 804a257:	c3                   	ret    
